
ToF-CAN-Firmware.elf:     file format elf32-avr

Sections:
Idx Name          Size      VMA       LMA       File off  Algn
  0 .data         00000446  00800100  00005020  000050b4  2**0
                  CONTENTS, ALLOC, LOAD, DATA
  1 .text         00005020  00000000  00000000  00000094  2**1
                  CONTENTS, ALLOC, LOAD, READONLY, CODE
  2 .bss          000001d2  00800546  00800546  000054fa  2**0
                  ALLOC
  3 .comment      0000005c  00000000  00000000  000054fa  2**0
                  CONTENTS, READONLY
  4 .note.gnu.avr.deviceinfo 00000040  00000000  00000000  00005558  2**2
                  CONTENTS, READONLY
  5 .debug_aranges 00000080  00000000  00000000  00005598  2**3
                  CONTENTS, READONLY, DEBUGGING
  6 .debug_info   00000b9f  00000000  00000000  00005618  2**0
                  CONTENTS, READONLY, DEBUGGING
  7 .debug_abbrev 000008be  00000000  00000000  000061b7  2**0
                  CONTENTS, READONLY, DEBUGGING
  8 .debug_line   000003b0  00000000  00000000  00006a75  2**0
                  CONTENTS, READONLY, DEBUGGING
  9 .debug_str    00000318  00000000  00000000  00006e25  2**0
                  CONTENTS, READONLY, DEBUGGING

Disassembly of section .text:

00000000 <__vectors>:
       0:	0c 94 5b 00 	jmp	0xb6	; 0xb6 <__ctors_end>
       4:	0c 94 af 05 	jmp	0xb5e	; 0xb5e <__vector_1>
       8:	0c 94 83 00 	jmp	0x106	; 0x106 <__bad_interrupt>
       c:	0c 94 83 00 	jmp	0x106	; 0x106 <__bad_interrupt>
      10:	0c 94 83 00 	jmp	0x106	; 0x106 <__bad_interrupt>
      14:	0c 94 83 00 	jmp	0x106	; 0x106 <__bad_interrupt>
      18:	0c 94 83 00 	jmp	0x106	; 0x106 <__bad_interrupt>
      1c:	0c 94 83 00 	jmp	0x106	; 0x106 <__bad_interrupt>
      20:	0c 94 83 00 	jmp	0x106	; 0x106 <__bad_interrupt>
      24:	0c 94 83 00 	jmp	0x106	; 0x106 <__bad_interrupt>
      28:	0c 94 83 00 	jmp	0x106	; 0x106 <__bad_interrupt>
      2c:	0c 94 83 00 	jmp	0x106	; 0x106 <__bad_interrupt>
      30:	0c 94 83 00 	jmp	0x106	; 0x106 <__bad_interrupt>
      34:	0c 94 83 00 	jmp	0x106	; 0x106 <__bad_interrupt>
      38:	0c 94 83 00 	jmp	0x106	; 0x106 <__bad_interrupt>
      3c:	0c 94 83 00 	jmp	0x106	; 0x106 <__bad_interrupt>
      40:	0c 94 83 00 	jmp	0x106	; 0x106 <__bad_interrupt>
      44:	0c 94 83 00 	jmp	0x106	; 0x106 <__bad_interrupt>
      48:	0c 94 83 00 	jmp	0x106	; 0x106 <__bad_interrupt>
      4c:	0c 94 83 00 	jmp	0x106	; 0x106 <__bad_interrupt>
      50:	0c 94 83 00 	jmp	0x106	; 0x106 <__bad_interrupt>
      54:	0c 94 83 00 	jmp	0x106	; 0x106 <__bad_interrupt>
      58:	0c 94 83 00 	jmp	0x106	; 0x106 <__bad_interrupt>
      5c:	0c 94 83 00 	jmp	0x106	; 0x106 <__bad_interrupt>
      60:	0c 94 83 00 	jmp	0x106	; 0x106 <__bad_interrupt>
      64:	0c 94 83 00 	jmp	0x106	; 0x106 <__bad_interrupt>
      68:	0c 94 83 00 	jmp	0x106	; 0x106 <__bad_interrupt>
      6c:	0c 94 83 00 	jmp	0x106	; 0x106 <__bad_interrupt>
      70:	0c 94 83 00 	jmp	0x106	; 0x106 <__bad_interrupt>
      74:	0c 94 83 00 	jmp	0x106	; 0x106 <__bad_interrupt>
      78:	0c 94 83 00 	jmp	0x106	; 0x106 <__bad_interrupt>
      7c:	0c 94 83 00 	jmp	0x106	; 0x106 <__bad_interrupt>
      80:	0c 94 83 00 	jmp	0x106	; 0x106 <__bad_interrupt>
      84:	0c 94 83 00 	jmp	0x106	; 0x106 <__bad_interrupt>
      88:	0c 94 83 00 	jmp	0x106	; 0x106 <__bad_interrupt>
      8c:	0c 94 83 00 	jmp	0x106	; 0x106 <__bad_interrupt>
      90:	0c 94 83 00 	jmp	0x106	; 0x106 <__bad_interrupt>
      94:	0c 94 83 00 	jmp	0x106	; 0x106 <__bad_interrupt>
      98:	0c 94 83 00 	jmp	0x106	; 0x106 <__bad_interrupt>
      9c:	0c 94 83 00 	jmp	0x106	; 0x106 <__bad_interrupt>
      a0:	0c 94 83 00 	jmp	0x106	; 0x106 <__bad_interrupt>
      a4:	0c 94 83 00 	jmp	0x106	; 0x106 <__bad_interrupt>
      a8:	0c 94 83 00 	jmp	0x106	; 0x106 <__bad_interrupt>
      ac:	0c 94 83 00 	jmp	0x106	; 0x106 <__bad_interrupt>
      b0:	0c 94 83 00 	jmp	0x106	; 0x106 <__bad_interrupt>

000000b4 <__ctors_start>:
      b4:	7e 06       	cpc	r7, r30

000000b6 <__ctors_end>:
      b6:	11 24       	eor	r1, r1
      b8:	1f be       	out	0x3f, r1	; 63
      ba:	cf ef       	ldi	r28, 0xFF	; 255
      bc:	d8 e0       	ldi	r29, 0x08	; 8
      be:	de bf       	out	0x3e, r29	; 62
      c0:	cd bf       	out	0x3d, r28	; 61

000000c2 <__do_copy_data>:
      c2:	15 e0       	ldi	r17, 0x05	; 5
      c4:	a0 e0       	ldi	r26, 0x00	; 0
      c6:	b1 e0       	ldi	r27, 0x01	; 1
      c8:	e0 e2       	ldi	r30, 0x20	; 32
      ca:	f0 e5       	ldi	r31, 0x50	; 80
      cc:	02 c0       	rjmp	.+4      	; 0xd2 <__do_copy_data+0x10>
      ce:	05 90       	lpm	r0, Z+
      d0:	0d 92       	st	X+, r0
      d2:	a6 34       	cpi	r26, 0x46	; 70
      d4:	b1 07       	cpc	r27, r17
      d6:	d9 f7       	brne	.-10     	; 0xce <__do_copy_data+0xc>

000000d8 <__do_clear_bss>:
      d8:	27 e0       	ldi	r18, 0x07	; 7
      da:	a6 e4       	ldi	r26, 0x46	; 70
      dc:	b5 e0       	ldi	r27, 0x05	; 5
      de:	01 c0       	rjmp	.+2      	; 0xe2 <.do_clear_bss_start>

000000e0 <.do_clear_bss_loop>:
      e0:	1d 92       	st	X+, r1

000000e2 <.do_clear_bss_start>:
      e2:	a8 31       	cpi	r26, 0x18	; 24
      e4:	b2 07       	cpc	r27, r18
      e6:	e1 f7       	brne	.-8      	; 0xe0 <.do_clear_bss_loop>

000000e8 <__do_global_ctors>:
      e8:	10 e0       	ldi	r17, 0x00	; 0
      ea:	cb e5       	ldi	r28, 0x5B	; 91
      ec:	d0 e0       	ldi	r29, 0x00	; 0
      ee:	04 c0       	rjmp	.+8      	; 0xf8 <__do_global_ctors+0x10>
      f0:	21 97       	sbiw	r28, 0x01	; 1
      f2:	fe 01       	movw	r30, r28
      f4:	0e 94 b0 24 	call	0x4960	; 0x4960 <__tablejump2__>
      f8:	ca 35       	cpi	r28, 0x5A	; 90
      fa:	d1 07       	cpc	r29, r17
      fc:	c9 f7       	brne	.-14     	; 0xf0 <__do_global_ctors+0x8>
      fe:	0e 94 b9 05 	call	0xb72	; 0xb72 <main>
     102:	0c 94 0e 28 	jmp	0x501c	; 0x501c <_exit>

00000106 <__bad_interrupt>:
     106:	0c 94 00 00 	jmp	0	; 0x0 <__vectors>

0000010a <_Z8setColori.part.2>:
     10a:	5f 98       	cbi	0x0b, 7	; 11
     10c:	5d 98       	cbi	0x0b, 5	; 11
     10e:	5e 98       	cbi	0x0b, 6	; 11
     110:	08 95       	ret

00000112 <_Z9i2c_starth>:
     112:	10 92 bc 00 	sts	0x00BC, r1	; 0x8000bc <__TEXT_REGION_LENGTH__+0x7e00bc>
     116:	94 ea       	ldi	r25, 0xA4	; 164
     118:	90 93 bc 00 	sts	0x00BC, r25	; 0x8000bc <__TEXT_REGION_LENGTH__+0x7e00bc>
     11c:	90 91 bc 00 	lds	r25, 0x00BC	; 0x8000bc <__TEXT_REGION_LENGTH__+0x7e00bc>
     120:	97 ff       	sbrs	r25, 7
     122:	fc cf       	rjmp	.-8      	; 0x11c <_Z9i2c_starth+0xa>
     124:	90 91 b9 00 	lds	r25, 0x00B9	; 0x8000b9 <__TEXT_REGION_LENGTH__+0x7e00b9>
     128:	98 7f       	andi	r25, 0xF8	; 248
     12a:	98 30       	cpi	r25, 0x08	; 8
     12c:	11 f0       	breq	.+4      	; 0x132 <_Z9i2c_starth+0x20>
     12e:	81 e0       	ldi	r24, 0x01	; 1
     130:	08 95       	ret
     132:	80 93 bb 00 	sts	0x00BB, r24	; 0x8000bb <__TEXT_REGION_LENGTH__+0x7e00bb>
     136:	84 e8       	ldi	r24, 0x84	; 132
     138:	80 93 bc 00 	sts	0x00BC, r24	; 0x8000bc <__TEXT_REGION_LENGTH__+0x7e00bc>
     13c:	80 91 bc 00 	lds	r24, 0x00BC	; 0x8000bc <__TEXT_REGION_LENGTH__+0x7e00bc>
     140:	87 ff       	sbrs	r24, 7
     142:	fc cf       	rjmp	.-8      	; 0x13c <_Z9i2c_starth+0x2a>
     144:	80 91 b9 00 	lds	r24, 0x00B9	; 0x8000b9 <__TEXT_REGION_LENGTH__+0x7e00b9>
     148:	88 7f       	andi	r24, 0xF8	; 248
     14a:	88 31       	cpi	r24, 0x18	; 24
     14c:	11 f0       	breq	.+4      	; 0x152 <_Z9i2c_starth+0x40>
     14e:	80 34       	cpi	r24, 0x40	; 64
     150:	71 f7       	brne	.-36     	; 0x12e <_Z9i2c_starth+0x1c>
     152:	80 e0       	ldi	r24, 0x00	; 0
     154:	08 95       	ret

00000156 <_Z9i2c_writeh>:
     156:	80 93 bb 00 	sts	0x00BB, r24	; 0x8000bb <__TEXT_REGION_LENGTH__+0x7e00bb>
     15a:	84 e8       	ldi	r24, 0x84	; 132
     15c:	80 93 bc 00 	sts	0x00BC, r24	; 0x8000bc <__TEXT_REGION_LENGTH__+0x7e00bc>
     160:	80 91 bc 00 	lds	r24, 0x00BC	; 0x8000bc <__TEXT_REGION_LENGTH__+0x7e00bc>
     164:	87 ff       	sbrs	r24, 7
     166:	fc cf       	rjmp	.-8      	; 0x160 <_Z9i2c_writeh+0xa>
     168:	90 91 b9 00 	lds	r25, 0x00B9	; 0x8000b9 <__TEXT_REGION_LENGTH__+0x7e00b9>
     16c:	98 7f       	andi	r25, 0xF8	; 248
     16e:	81 e0       	ldi	r24, 0x01	; 1
     170:	98 32       	cpi	r25, 0x28	; 40
     172:	09 f4       	brne	.+2      	; 0x176 <_Z9i2c_writeh+0x20>
     174:	80 e0       	ldi	r24, 0x00	; 0
     176:	08 95       	ret

00000178 <_Z12i2c_read_ackv>:
     178:	84 ec       	ldi	r24, 0xC4	; 196
     17a:	80 93 bc 00 	sts	0x00BC, r24	; 0x8000bc <__TEXT_REGION_LENGTH__+0x7e00bc>
     17e:	80 91 bc 00 	lds	r24, 0x00BC	; 0x8000bc <__TEXT_REGION_LENGTH__+0x7e00bc>
     182:	87 ff       	sbrs	r24, 7
     184:	fc cf       	rjmp	.-8      	; 0x17e <_Z12i2c_read_ackv+0x6>
     186:	80 91 bb 00 	lds	r24, 0x00BB	; 0x8000bb <__TEXT_REGION_LENGTH__+0x7e00bb>
     18a:	08 95       	ret

0000018c <_Z8i2c_stopv>:
     18c:	84 e9       	ldi	r24, 0x94	; 148
     18e:	80 93 bc 00 	sts	0x00BC, r24	; 0x8000bc <__TEXT_REGION_LENGTH__+0x7e00bc>
     192:	08 95       	ret

00000194 <_ZN16Adafruit_VL53L0X5beginEhb>:
     194:	ef 92       	push	r14
     196:	ff 92       	push	r15
     198:	0f 93       	push	r16
     19a:	1f 93       	push	r17
     19c:	cf 93       	push	r28
     19e:	df 93       	push	r29
     1a0:	cd b7       	in	r28, 0x3d	; 61
     1a2:	de b7       	in	r29, 0x3e	; 62
     1a4:	27 97       	sbiw	r28, 0x07	; 7
     1a6:	0f b6       	in	r0, 0x3f	; 63
     1a8:	f8 94       	cli
     1aa:	de bf       	out	0x3e, r29	; 62
     1ac:	0f be       	out	0x3f, r0	; 63
     1ae:	cd bf       	out	0x3d, r28	; 61
     1b0:	8c 01       	movw	r16, r24
     1b2:	7c 01       	movw	r14, r24
     1b4:	8a eb       	ldi	r24, 0xBA	; 186
     1b6:	e8 1a       	sub	r14, r24
     1b8:	8e ef       	ldi	r24, 0xFE	; 254
     1ba:	f8 0a       	sbc	r15, r24
     1bc:	d7 01       	movw	r26, r14
     1be:	ed 91       	ld	r30, X+
     1c0:	fc 91       	ld	r31, X
     1c2:	11 97       	sbiw	r26, 0x01	; 1
     1c4:	ef 5b       	subi	r30, 0xBF	; 191
     1c6:	fe 4f       	sbci	r31, 0xFE	; 254
     1c8:	89 e2       	ldi	r24, 0x29	; 41
     1ca:	80 83       	st	Z, r24
     1cc:	ed 91       	ld	r30, X+
     1ce:	fc 91       	ld	r31, X
     1d0:	11 97       	sbiw	r26, 0x01	; 1
     1d2:	ee 5b       	subi	r30, 0xBE	; 190
     1d4:	fe 4f       	sbci	r31, 0xFE	; 254
     1d6:	81 e0       	ldi	r24, 0x01	; 1
     1d8:	80 83       	st	Z, r24
     1da:	ed 91       	ld	r30, X+
     1dc:	fc 91       	ld	r31, X
     1de:	ed 5b       	subi	r30, 0xBD	; 189
     1e0:	fe 4f       	sbci	r31, 0xFE	; 254
     1e2:	80 e9       	ldi	r24, 0x90	; 144
     1e4:	91 e0       	ldi	r25, 0x01	; 1
     1e6:	91 83       	std	Z+1, r25	; 0x01
     1e8:	80 83       	st	Z, r24
     1ea:	c8 01       	movw	r24, r16
     1ec:	01 96       	adiw	r24, 0x01	; 1
     1ee:	0e 94 3f 0a 	call	0x147e	; 0x147e <VL53L0X_DataInit>
     1f2:	f8 01       	movw	r30, r16
     1f4:	80 83       	st	Z, r24
     1f6:	81 11       	cpse	r24, r1
     1f8:	07 c0       	rjmp	.+14     	; 0x208 <_ZN16Adafruit_VL53L0X5beginEhb+0x74>
     1fa:	d7 01       	movw	r26, r14
     1fc:	8d 91       	ld	r24, X+
     1fe:	9c 91       	ld	r25, X
     200:	0e 94 da 0e 	call	0x1db4	; 0x1db4 <VL53L0X_StaticInit>
     204:	f8 01       	movw	r30, r16
     206:	80 83       	st	Z, r24
     208:	d8 01       	movw	r26, r16
     20a:	8c 91       	ld	r24, X
     20c:	81 11       	cpse	r24, r1
     20e:	0d c0       	rjmp	.+26     	; 0x22a <_ZN16Adafruit_VL53L0X5beginEhb+0x96>
     210:	ae 01       	movw	r20, r28
     212:	49 5f       	subi	r20, 0xF9	; 249
     214:	5f 4f       	sbci	r21, 0xFF	; 255
     216:	be 01       	movw	r22, r28
     218:	6f 5f       	subi	r22, 0xFF	; 255
     21a:	7f 4f       	sbci	r23, 0xFF	; 255
     21c:	f7 01       	movw	r30, r14
     21e:	80 81       	ld	r24, Z
     220:	91 81       	ldd	r25, Z+1	; 0x01
     222:	0e 94 63 10 	call	0x20c6	; 0x20c6 <VL53L0X_PerformRefSpadManagement>
     226:	d8 01       	movw	r26, r16
     228:	8c 93       	st	X, r24
     22a:	f8 01       	movw	r30, r16
     22c:	80 81       	ld	r24, Z
     22e:	81 11       	cpse	r24, r1
     230:	0d c0       	rjmp	.+26     	; 0x24c <_ZN16Adafruit_VL53L0X5beginEhb+0xb8>
     232:	ae 01       	movw	r20, r28
     234:	4b 5f       	subi	r20, 0xFB	; 251
     236:	5f 4f       	sbci	r21, 0xFF	; 255
     238:	be 01       	movw	r22, r28
     23a:	6a 5f       	subi	r22, 0xFA	; 250
     23c:	7f 4f       	sbci	r23, 0xFF	; 255
     23e:	d7 01       	movw	r26, r14
     240:	8d 91       	ld	r24, X+
     242:	9c 91       	ld	r25, X
     244:	0e 94 57 0b 	call	0x16ae	; 0x16ae <VL53L0X_PerformRefCalibration>
     248:	f8 01       	movw	r30, r16
     24a:	80 83       	st	Z, r24
     24c:	d8 01       	movw	r26, r16
     24e:	8c 91       	ld	r24, X
     250:	81 11       	cpse	r24, r1
     252:	0a c0       	rjmp	.+20     	; 0x268 <_ZN16Adafruit_VL53L0X5beginEhb+0xd4>
     254:	41 e0       	ldi	r20, 0x01	; 1
     256:	60 e0       	ldi	r22, 0x00	; 0
     258:	70 e0       	ldi	r23, 0x00	; 0
     25a:	f7 01       	movw	r30, r14
     25c:	80 81       	ld	r24, Z
     25e:	91 81       	ldd	r25, Z+1	; 0x01
     260:	0e 94 44 08 	call	0x1088	; 0x1088 <VL53L0X_SetLimitCheckEnable>
     264:	d8 01       	movw	r26, r16
     266:	8c 93       	st	X, r24
     268:	f8 01       	movw	r30, r16
     26a:	80 81       	ld	r24, Z
     26c:	81 11       	cpse	r24, r1
     26e:	0a c0       	rjmp	.+20     	; 0x284 <_ZN16Adafruit_VL53L0X5beginEhb+0xf0>
     270:	41 e0       	ldi	r20, 0x01	; 1
     272:	61 e0       	ldi	r22, 0x01	; 1
     274:	70 e0       	ldi	r23, 0x00	; 0
     276:	d7 01       	movw	r26, r14
     278:	8d 91       	ld	r24, X+
     27a:	9c 91       	ld	r25, X
     27c:	0e 94 44 08 	call	0x1088	; 0x1088 <VL53L0X_SetLimitCheckEnable>
     280:	f8 01       	movw	r30, r16
     282:	80 83       	st	Z, r24
     284:	d8 01       	movw	r26, r16
     286:	8c 91       	ld	r24, X
     288:	81 11       	cpse	r24, r1
     28a:	0a c0       	rjmp	.+20     	; 0x2a0 <_ZN16Adafruit_VL53L0X5beginEhb+0x10c>
     28c:	41 e0       	ldi	r20, 0x01	; 1
     28e:	63 e0       	ldi	r22, 0x03	; 3
     290:	70 e0       	ldi	r23, 0x00	; 0
     292:	f7 01       	movw	r30, r14
     294:	80 81       	ld	r24, Z
     296:	91 81       	ldd	r25, Z+1	; 0x01
     298:	0e 94 44 08 	call	0x1088	; 0x1088 <VL53L0X_SetLimitCheckEnable>
     29c:	d8 01       	movw	r26, r16
     29e:	8c 93       	st	X, r24
     2a0:	f8 01       	movw	r30, r16
     2a2:	80 81       	ld	r24, Z
     2a4:	81 11       	cpse	r24, r1
     2a6:	0d c0       	rjmp	.+26     	; 0x2c2 <_ZN16Adafruit_VL53L0X5beginEhb+0x12e>
     2a8:	24 ed       	ldi	r18, 0xD4	; 212
     2aa:	38 e0       	ldi	r19, 0x08	; 8
     2ac:	40 e0       	ldi	r20, 0x00	; 0
     2ae:	50 e0       	ldi	r21, 0x00	; 0
     2b0:	63 e0       	ldi	r22, 0x03	; 3
     2b2:	70 e0       	ldi	r23, 0x00	; 0
     2b4:	d7 01       	movw	r26, r14
     2b6:	8d 91       	ld	r24, X+
     2b8:	9c 91       	ld	r25, X
     2ba:	0e 94 b9 08 	call	0x1172	; 0x1172 <VL53L0X_SetLimitCheckValue>
     2be:	f8 01       	movw	r30, r16
     2c0:	80 83       	st	Z, r24
     2c2:	81 e0       	ldi	r24, 0x01	; 1
     2c4:	d8 01       	movw	r26, r16
     2c6:	9c 91       	ld	r25, X
     2c8:	91 11       	cpse	r25, r1
     2ca:	80 e0       	ldi	r24, 0x00	; 0
     2cc:	27 96       	adiw	r28, 0x07	; 7
     2ce:	0f b6       	in	r0, 0x3f	; 63
     2d0:	f8 94       	cli
     2d2:	de bf       	out	0x3e, r29	; 62
     2d4:	0f be       	out	0x3f, r0	; 63
     2d6:	cd bf       	out	0x3d, r28	; 61
     2d8:	df 91       	pop	r29
     2da:	cf 91       	pop	r28
     2dc:	1f 91       	pop	r17
     2de:	0f 91       	pop	r16
     2e0:	ff 90       	pop	r15
     2e2:	ef 90       	pop	r14
     2e4:	08 95       	ret

000002e6 <_Z8spi_putch>:
     2e6:	8e bd       	out	0x2e, r24	; 46
     2e8:	0d b4       	in	r0, 0x2d	; 45
     2ea:	07 fe       	sbrs	r0, 7
     2ec:	fd cf       	rjmp	.-6      	; 0x2e8 <_Z8spi_putch+0x2>
     2ee:	8e b5       	in	r24, 0x2e	; 46
     2f0:	08 95       	ret

000002f2 <_Z22mcp2515_write_registerhh>:
     2f2:	cf 93       	push	r28
     2f4:	df 93       	push	r29
     2f6:	d8 2f       	mov	r29, r24
     2f8:	c6 2f       	mov	r28, r22
     2fa:	2a 98       	cbi	0x05, 2	; 5
     2fc:	82 e0       	ldi	r24, 0x02	; 2
     2fe:	0e 94 73 01 	call	0x2e6	; 0x2e6 <_Z8spi_putch>
     302:	8d 2f       	mov	r24, r29
     304:	0e 94 73 01 	call	0x2e6	; 0x2e6 <_Z8spi_putch>
     308:	8c 2f       	mov	r24, r28
     30a:	0e 94 73 01 	call	0x2e6	; 0x2e6 <_Z8spi_putch>
     30e:	2a 9a       	sbi	0x05, 2	; 5
     310:	df 91       	pop	r29
     312:	cf 91       	pop	r28
     314:	08 95       	ret

00000316 <_Z21mcp2515_read_registerh>:
     316:	cf 93       	push	r28
     318:	c8 2f       	mov	r28, r24
     31a:	2a 98       	cbi	0x05, 2	; 5
     31c:	83 e0       	ldi	r24, 0x03	; 3
     31e:	0e 94 73 01 	call	0x2e6	; 0x2e6 <_Z8spi_putch>
     322:	8c 2f       	mov	r24, r28
     324:	0e 94 73 01 	call	0x2e6	; 0x2e6 <_Z8spi_putch>
     328:	8f ef       	ldi	r24, 0xFF	; 255
     32a:	0e 94 73 01 	call	0x2e6	; 0x2e6 <_Z8spi_putch>
     32e:	2a 9a       	sbi	0x05, 2	; 5
     330:	cf 91       	pop	r28
     332:	08 95       	ret

00000334 <_Z18mcp2515_bit_modifyhhh>:
     334:	1f 93       	push	r17
     336:	cf 93       	push	r28
     338:	df 93       	push	r29
     33a:	18 2f       	mov	r17, r24
     33c:	d6 2f       	mov	r29, r22
     33e:	c4 2f       	mov	r28, r20
     340:	2a 98       	cbi	0x05, 2	; 5
     342:	85 e0       	ldi	r24, 0x05	; 5
     344:	0e 94 73 01 	call	0x2e6	; 0x2e6 <_Z8spi_putch>
     348:	81 2f       	mov	r24, r17
     34a:	0e 94 73 01 	call	0x2e6	; 0x2e6 <_Z8spi_putch>
     34e:	8d 2f       	mov	r24, r29
     350:	0e 94 73 01 	call	0x2e6	; 0x2e6 <_Z8spi_putch>
     354:	8c 2f       	mov	r24, r28
     356:	0e 94 73 01 	call	0x2e6	; 0x2e6 <_Z8spi_putch>
     35a:	2a 9a       	sbi	0x05, 2	; 5
     35c:	df 91       	pop	r29
     35e:	cf 91       	pop	r28
     360:	1f 91       	pop	r17
     362:	08 95       	ret

00000364 <_Z19mcp2515_read_statush>:
     364:	2a 98       	cbi	0x05, 2	; 5
     366:	0e 94 73 01 	call	0x2e6	; 0x2e6 <_Z8spi_putch>
     36a:	8f ef       	ldi	r24, 0xFF	; 255
     36c:	0e 94 73 01 	call	0x2e6	; 0x2e6 <_Z8spi_putch>
     370:	2a 9a       	sbi	0x05, 2	; 5
     372:	08 95       	ret

00000374 <_Z12mcp2515_initj>:
     374:	cf 93       	push	r28
     376:	df 93       	push	r29
     378:	ec 01       	movw	r28, r24
     37a:	2a 9a       	sbi	0x05, 2	; 5
     37c:	22 9a       	sbi	0x04, 2	; 4
     37e:	2d 98       	cbi	0x05, 5	; 5
     380:	2b 98       	cbi	0x05, 3	; 5
     382:	2c 98       	cbi	0x05, 4	; 5
     384:	25 9a       	sbi	0x04, 5	; 4
     386:	23 9a       	sbi	0x04, 3	; 4
     388:	24 98       	cbi	0x04, 4	; 4
     38a:	52 98       	cbi	0x0a, 2	; 10
     38c:	5a 9a       	sbi	0x0b, 2	; 11
     38e:	81 e5       	ldi	r24, 0x51	; 81
     390:	8c bd       	out	0x2c, r24	; 44
     392:	1d bc       	out	0x2d, r1	; 45
     394:	2a 98       	cbi	0x05, 2	; 5
     396:	80 ec       	ldi	r24, 0xC0	; 192
     398:	0e 94 73 01 	call	0x2e6	; 0x2e6 <_Z8spi_putch>
     39c:	2a 9a       	sbi	0x05, 2	; 5
     39e:	87 ec       	ldi	r24, 0xC7	; 199
     3a0:	90 e0       	ldi	r25, 0x00	; 0
     3a2:	01 97       	sbiw	r24, 0x01	; 1
     3a4:	f1 f7       	brne	.-4      	; 0x3a2 <_Z12mcp2515_initj+0x2e>
     3a6:	00 c0       	rjmp	.+0      	; 0x3a8 <_Z12mcp2515_initj+0x34>
     3a8:	00 00       	nop
     3aa:	2a 98       	cbi	0x05, 2	; 5
     3ac:	82 e0       	ldi	r24, 0x02	; 2
     3ae:	0e 94 73 01 	call	0x2e6	; 0x2e6 <_Z8spi_putch>
     3b2:	88 e2       	ldi	r24, 0x28	; 40
     3b4:	0e 94 73 01 	call	0x2e6	; 0x2e6 <_Z8spi_putch>
     3b8:	84 e0       	ldi	r24, 0x04	; 4
     3ba:	0e 94 73 01 	call	0x2e6	; 0x2e6 <_Z8spi_putch>
     3be:	89 e8       	ldi	r24, 0x89	; 137
     3c0:	0e 94 73 01 	call	0x2e6	; 0x2e6 <_Z8spi_putch>
     3c4:	80 e0       	ldi	r24, 0x00	; 0
     3c6:	0e 94 73 01 	call	0x2e6	; 0x2e6 <_Z8spi_putch>
     3ca:	83 e0       	ldi	r24, 0x03	; 3
     3cc:	0e 94 73 01 	call	0x2e6	; 0x2e6 <_Z8spi_putch>
     3d0:	2a 9a       	sbi	0x05, 2	; 5
     3d2:	8a e2       	ldi	r24, 0x2A	; 42
     3d4:	0e 94 8b 01 	call	0x316	; 0x316 <_Z21mcp2515_read_registerh>
     3d8:	81 11       	cpse	r24, r1
     3da:	9e c0       	rjmp	.+316    	; 0x518 <__LOCK_REGION_LENGTH__+0x118>
     3dc:	60 e0       	ldi	r22, 0x00	; 0
     3de:	8c e0       	ldi	r24, 0x0C	; 12
     3e0:	0e 94 79 01 	call	0x2f2	; 0x2f2 <_Z22mcp2515_write_registerhh>
     3e4:	60 e0       	ldi	r22, 0x00	; 0
     3e6:	8d e0       	ldi	r24, 0x0D	; 13
     3e8:	0e 94 79 01 	call	0x2f2	; 0x2f2 <_Z22mcp2515_write_registerhh>
     3ec:	60 e8       	ldi	r22, 0x80	; 128
     3ee:	8f e0       	ldi	r24, 0x0F	; 15
     3f0:	0e 94 79 01 	call	0x2f2	; 0x2f2 <_Z22mcp2515_write_registerhh>
     3f4:	64 e0       	ldi	r22, 0x04	; 4
     3f6:	80 e6       	ldi	r24, 0x60	; 96
     3f8:	0e 94 79 01 	call	0x2f2	; 0x2f2 <_Z22mcp2515_write_registerhh>
     3fc:	60 e0       	ldi	r22, 0x00	; 0
     3fe:	80 e7       	ldi	r24, 0x70	; 112
     400:	0e 94 79 01 	call	0x2f2	; 0x2f2 <_Z22mcp2515_write_registerhh>
     404:	60 e0       	ldi	r22, 0x00	; 0
     406:	80 e0       	ldi	r24, 0x00	; 0
     408:	0e 94 79 01 	call	0x2f2	; 0x2f2 <_Z22mcp2515_write_registerhh>
     40c:	68 e0       	ldi	r22, 0x08	; 8
     40e:	81 e0       	ldi	r24, 0x01	; 1
     410:	0e 94 79 01 	call	0x2f2	; 0x2f2 <_Z22mcp2515_write_registerhh>
     414:	6d 2f       	mov	r22, r29
     416:	82 e0       	ldi	r24, 0x02	; 2
     418:	0e 94 79 01 	call	0x2f2	; 0x2f2 <_Z22mcp2515_write_registerhh>
     41c:	6c 2f       	mov	r22, r28
     41e:	83 e0       	ldi	r24, 0x03	; 3
     420:	0e 94 79 01 	call	0x2f2	; 0x2f2 <_Z22mcp2515_write_registerhh>
     424:	60 e0       	ldi	r22, 0x00	; 0
     426:	84 e0       	ldi	r24, 0x04	; 4
     428:	0e 94 79 01 	call	0x2f2	; 0x2f2 <_Z22mcp2515_write_registerhh>
     42c:	68 e0       	ldi	r22, 0x08	; 8
     42e:	85 e0       	ldi	r24, 0x05	; 5
     430:	0e 94 79 01 	call	0x2f2	; 0x2f2 <_Z22mcp2515_write_registerhh>
     434:	6d 2f       	mov	r22, r29
     436:	86 e0       	ldi	r24, 0x06	; 6
     438:	0e 94 79 01 	call	0x2f2	; 0x2f2 <_Z22mcp2515_write_registerhh>
     43c:	6c 2f       	mov	r22, r28
     43e:	87 e0       	ldi	r24, 0x07	; 7
     440:	0e 94 79 01 	call	0x2f2	; 0x2f2 <_Z22mcp2515_write_registerhh>
     444:	60 e0       	ldi	r22, 0x00	; 0
     446:	88 e0       	ldi	r24, 0x08	; 8
     448:	0e 94 79 01 	call	0x2f2	; 0x2f2 <_Z22mcp2515_write_registerhh>
     44c:	68 e0       	ldi	r22, 0x08	; 8
     44e:	89 e0       	ldi	r24, 0x09	; 9
     450:	0e 94 79 01 	call	0x2f2	; 0x2f2 <_Z22mcp2515_write_registerhh>
     454:	6d 2f       	mov	r22, r29
     456:	8a e0       	ldi	r24, 0x0A	; 10
     458:	0e 94 79 01 	call	0x2f2	; 0x2f2 <_Z22mcp2515_write_registerhh>
     45c:	6c 2f       	mov	r22, r28
     45e:	8b e0       	ldi	r24, 0x0B	; 11
     460:	0e 94 79 01 	call	0x2f2	; 0x2f2 <_Z22mcp2515_write_registerhh>
     464:	60 e0       	ldi	r22, 0x00	; 0
     466:	80 e1       	ldi	r24, 0x10	; 16
     468:	0e 94 79 01 	call	0x2f2	; 0x2f2 <_Z22mcp2515_write_registerhh>
     46c:	68 e0       	ldi	r22, 0x08	; 8
     46e:	81 e1       	ldi	r24, 0x11	; 17
     470:	0e 94 79 01 	call	0x2f2	; 0x2f2 <_Z22mcp2515_write_registerhh>
     474:	6d 2f       	mov	r22, r29
     476:	82 e1       	ldi	r24, 0x12	; 18
     478:	0e 94 79 01 	call	0x2f2	; 0x2f2 <_Z22mcp2515_write_registerhh>
     47c:	6c 2f       	mov	r22, r28
     47e:	83 e1       	ldi	r24, 0x13	; 19
     480:	0e 94 79 01 	call	0x2f2	; 0x2f2 <_Z22mcp2515_write_registerhh>
     484:	60 e0       	ldi	r22, 0x00	; 0
     486:	84 e1       	ldi	r24, 0x14	; 20
     488:	0e 94 79 01 	call	0x2f2	; 0x2f2 <_Z22mcp2515_write_registerhh>
     48c:	68 e0       	ldi	r22, 0x08	; 8
     48e:	85 e1       	ldi	r24, 0x15	; 21
     490:	0e 94 79 01 	call	0x2f2	; 0x2f2 <_Z22mcp2515_write_registerhh>
     494:	6d 2f       	mov	r22, r29
     496:	86 e1       	ldi	r24, 0x16	; 22
     498:	0e 94 79 01 	call	0x2f2	; 0x2f2 <_Z22mcp2515_write_registerhh>
     49c:	6c 2f       	mov	r22, r28
     49e:	87 e1       	ldi	r24, 0x17	; 23
     4a0:	0e 94 79 01 	call	0x2f2	; 0x2f2 <_Z22mcp2515_write_registerhh>
     4a4:	60 e0       	ldi	r22, 0x00	; 0
     4a6:	88 e1       	ldi	r24, 0x18	; 24
     4a8:	0e 94 79 01 	call	0x2f2	; 0x2f2 <_Z22mcp2515_write_registerhh>
     4ac:	68 e0       	ldi	r22, 0x08	; 8
     4ae:	89 e1       	ldi	r24, 0x19	; 25
     4b0:	0e 94 79 01 	call	0x2f2	; 0x2f2 <_Z22mcp2515_write_registerhh>
     4b4:	6d 2f       	mov	r22, r29
     4b6:	8a e1       	ldi	r24, 0x1A	; 26
     4b8:	0e 94 79 01 	call	0x2f2	; 0x2f2 <_Z22mcp2515_write_registerhh>
     4bc:	6c 2f       	mov	r22, r28
     4be:	8b e1       	ldi	r24, 0x1B	; 27
     4c0:	0e 94 79 01 	call	0x2f2	; 0x2f2 <_Z22mcp2515_write_registerhh>
     4c4:	6f ef       	ldi	r22, 0xFF	; 255
     4c6:	80 e2       	ldi	r24, 0x20	; 32
     4c8:	0e 94 79 01 	call	0x2f2	; 0x2f2 <_Z22mcp2515_write_registerhh>
     4cc:	6f ef       	ldi	r22, 0xFF	; 255
     4ce:	81 e2       	ldi	r24, 0x21	; 33
     4d0:	0e 94 79 01 	call	0x2f2	; 0x2f2 <_Z22mcp2515_write_registerhh>
     4d4:	6f ef       	ldi	r22, 0xFF	; 255
     4d6:	82 e2       	ldi	r24, 0x22	; 34
     4d8:	0e 94 79 01 	call	0x2f2	; 0x2f2 <_Z22mcp2515_write_registerhh>
     4dc:	6f ef       	ldi	r22, 0xFF	; 255
     4de:	83 e2       	ldi	r24, 0x23	; 35
     4e0:	0e 94 79 01 	call	0x2f2	; 0x2f2 <_Z22mcp2515_write_registerhh>
     4e4:	6f ef       	ldi	r22, 0xFF	; 255
     4e6:	84 e2       	ldi	r24, 0x24	; 36
     4e8:	0e 94 79 01 	call	0x2f2	; 0x2f2 <_Z22mcp2515_write_registerhh>
     4ec:	6f ef       	ldi	r22, 0xFF	; 255
     4ee:	85 e2       	ldi	r24, 0x25	; 37
     4f0:	0e 94 79 01 	call	0x2f2	; 0x2f2 <_Z22mcp2515_write_registerhh>
     4f4:	6f ef       	ldi	r22, 0xFF	; 255
     4f6:	86 e2       	ldi	r24, 0x26	; 38
     4f8:	0e 94 79 01 	call	0x2f2	; 0x2f2 <_Z22mcp2515_write_registerhh>
     4fc:	6f ef       	ldi	r22, 0xFF	; 255
     4fe:	87 e2       	ldi	r24, 0x27	; 39
     500:	0e 94 79 01 	call	0x2f2	; 0x2f2 <_Z22mcp2515_write_registerhh>
     504:	63 e0       	ldi	r22, 0x03	; 3
     506:	8b e2       	ldi	r24, 0x2B	; 43
     508:	0e 94 79 01 	call	0x2f2	; 0x2f2 <_Z22mcp2515_write_registerhh>
     50c:	60 e0       	ldi	r22, 0x00	; 0
     50e:	8f e0       	ldi	r24, 0x0F	; 15
     510:	0e 94 79 01 	call	0x2f2	; 0x2f2 <_Z22mcp2515_write_registerhh>
     514:	81 e0       	ldi	r24, 0x01	; 1
     516:	01 c0       	rjmp	.+2      	; 0x51a <__LOCK_REGION_LENGTH__+0x11a>
     518:	80 e0       	ldi	r24, 0x00	; 0
     51a:	df 91       	pop	r29
     51c:	cf 91       	pop	r28
     51e:	08 95       	ret

00000520 <_Z19mcp2515_get_messageP4tCAN>:
     520:	ef 92       	push	r14
     522:	ff 92       	push	r15
     524:	0f 93       	push	r16
     526:	1f 93       	push	r17
     528:	cf 93       	push	r28
     52a:	df 93       	push	r29
     52c:	1f 92       	push	r1
     52e:	cd b7       	in	r28, 0x3d	; 61
     530:	de b7       	in	r29, 0x3e	; 62
     532:	8c 01       	movw	r16, r24
     534:	80 eb       	ldi	r24, 0xB0	; 176
     536:	0e 94 b2 01 	call	0x364	; 0x364 <_Z19mcp2515_read_statush>
     53a:	89 83       	std	Y+1, r24	; 0x01
     53c:	99 81       	ldd	r25, Y+1	; 0x01
     53e:	89 2f       	mov	r24, r25
     540:	80 74       	andi	r24, 0x40	; 64
     542:	96 fd       	sbrc	r25, 6
     544:	05 c0       	rjmp	.+10     	; 0x550 <_Z19mcp2515_get_messageP4tCAN+0x30>
     546:	99 81       	ldd	r25, Y+1	; 0x01
     548:	97 ff       	sbrs	r25, 7
     54a:	5e c0       	rjmp	.+188    	; 0x608 <_Z19mcp2515_get_messageP4tCAN+0xe8>
     54c:	84 e9       	ldi	r24, 0x94	; 148
     54e:	01 c0       	rjmp	.+2      	; 0x552 <_Z19mcp2515_get_messageP4tCAN+0x32>
     550:	80 e9       	ldi	r24, 0x90	; 144
     552:	2a 98       	cbi	0x05, 2	; 5
     554:	0e 94 73 01 	call	0x2e6	; 0x2e6 <_Z8spi_putch>
     558:	8f ef       	ldi	r24, 0xFF	; 255
     55a:	0e 94 73 01 	call	0x2e6	; 0x2e6 <_Z8spi_putch>
     55e:	28 e0       	ldi	r18, 0x08	; 8
     560:	82 9f       	mul	r24, r18
     562:	c0 01       	movw	r24, r0
     564:	11 24       	eor	r1, r1
     566:	f8 01       	movw	r30, r16
     568:	91 83       	std	Z+1, r25	; 0x01
     56a:	80 83       	st	Z, r24
     56c:	8f ef       	ldi	r24, 0xFF	; 255
     56e:	0e 94 73 01 	call	0x2e6	; 0x2e6 <_Z8spi_putch>
     572:	90 e0       	ldi	r25, 0x00	; 0
     574:	25 e0       	ldi	r18, 0x05	; 5
     576:	95 95       	asr	r25
     578:	87 95       	ror	r24
     57a:	2a 95       	dec	r18
     57c:	e1 f7       	brne	.-8      	; 0x576 <_Z19mcp2515_get_messageP4tCAN+0x56>
     57e:	f8 01       	movw	r30, r16
     580:	20 81       	ld	r18, Z
     582:	31 81       	ldd	r19, Z+1	; 0x01
     584:	82 2b       	or	r24, r18
     586:	93 2b       	or	r25, r19
     588:	91 83       	std	Z+1, r25	; 0x01
     58a:	80 83       	st	Z, r24
     58c:	8f ef       	ldi	r24, 0xFF	; 255
     58e:	0e 94 73 01 	call	0x2e6	; 0x2e6 <_Z8spi_putch>
     592:	f8 01       	movw	r30, r16
     594:	12 82       	std	Z+2, r1	; 0x02
     596:	83 83       	std	Z+3, r24	; 0x03
     598:	8f ef       	ldi	r24, 0xFF	; 255
     59a:	0e 94 73 01 	call	0x2e6	; 0x2e6 <_Z8spi_putch>
     59e:	f8 01       	movw	r30, r16
     5a0:	22 81       	ldd	r18, Z+2	; 0x02
     5a2:	33 81       	ldd	r19, Z+3	; 0x03
     5a4:	28 2b       	or	r18, r24
     5a6:	33 83       	std	Z+3, r19	; 0x03
     5a8:	22 83       	std	Z+2, r18	; 0x02
     5aa:	8f ef       	ldi	r24, 0xFF	; 255
     5ac:	0e 94 73 01 	call	0x2e6	; 0x2e6 <_Z8spi_putch>
     5b0:	8f 70       	andi	r24, 0x0F	; 15
     5b2:	e8 2e       	mov	r14, r24
     5b4:	98 2f       	mov	r25, r24
     5b6:	99 0f       	add	r25, r25
     5b8:	f8 01       	movw	r30, r16
     5ba:	84 81       	ldd	r24, Z+4	; 0x04
     5bc:	81 7e       	andi	r24, 0xE1	; 225
     5be:	89 2b       	or	r24, r25
     5c0:	84 83       	std	Z+4, r24	; 0x04
     5c2:	99 81       	ldd	r25, Y+1	; 0x01
     5c4:	93 fb       	bst	r25, 3
     5c6:	99 27       	eor	r25, r25
     5c8:	90 f9       	bld	r25, 0
     5ca:	91 95       	neg	r25
     5cc:	90 fb       	bst	r25, 0
     5ce:	80 f9       	bld	r24, 0
     5d0:	84 83       	std	Z+4, r24	; 0x04
     5d2:	0b 5f       	subi	r16, 0xFB	; 251
     5d4:	1f 4f       	sbci	r17, 0xFF	; 255
     5d6:	f1 2c       	mov	r15, r1
     5d8:	fe 14       	cp	r15, r14
     5da:	41 f0       	breq	.+16     	; 0x5ec <_Z19mcp2515_get_messageP4tCAN+0xcc>
     5dc:	8f ef       	ldi	r24, 0xFF	; 255
     5de:	0e 94 73 01 	call	0x2e6	; 0x2e6 <_Z8spi_putch>
     5e2:	f8 01       	movw	r30, r16
     5e4:	81 93       	st	Z+, r24
     5e6:	8f 01       	movw	r16, r30
     5e8:	f3 94       	inc	r15
     5ea:	f6 cf       	rjmp	.-20     	; 0x5d8 <_Z19mcp2515_get_messageP4tCAN+0xb8>
     5ec:	2a 9a       	sbi	0x05, 2	; 5
     5ee:	89 81       	ldd	r24, Y+1	; 0x01
     5f0:	40 e0       	ldi	r20, 0x00	; 0
     5f2:	86 ff       	sbrs	r24, 6
     5f4:	02 c0       	rjmp	.+4      	; 0x5fa <_Z19mcp2515_get_messageP4tCAN+0xda>
     5f6:	61 e0       	ldi	r22, 0x01	; 1
     5f8:	01 c0       	rjmp	.+2      	; 0x5fc <_Z19mcp2515_get_messageP4tCAN+0xdc>
     5fa:	62 e0       	ldi	r22, 0x02	; 2
     5fc:	8c e2       	ldi	r24, 0x2C	; 44
     5fe:	0e 94 9a 01 	call	0x334	; 0x334 <_Z18mcp2515_bit_modifyhhh>
     602:	89 81       	ldd	r24, Y+1	; 0x01
     604:	87 70       	andi	r24, 0x07	; 7
     606:	8f 5f       	subi	r24, 0xFF	; 255
     608:	0f 90       	pop	r0
     60a:	df 91       	pop	r29
     60c:	cf 91       	pop	r28
     60e:	1f 91       	pop	r17
     610:	0f 91       	pop	r16
     612:	ff 90       	pop	r15
     614:	ef 90       	pop	r14
     616:	08 95       	ret

00000618 <_Z20mcp2515_send_messageP4tCAN>:
     618:	df 92       	push	r13
     61a:	ef 92       	push	r14
     61c:	ff 92       	push	r15
     61e:	0f 93       	push	r16
     620:	1f 93       	push	r17
     622:	cf 93       	push	r28
     624:	df 93       	push	r29
     626:	1f 92       	push	r1
     628:	cd b7       	in	r28, 0x3d	; 61
     62a:	de b7       	in	r29, 0x3e	; 62
     62c:	7c 01       	movw	r14, r24
     62e:	80 ea       	ldi	r24, 0xA0	; 160
     630:	0e 94 b2 01 	call	0x364	; 0x364 <_Z19mcp2515_read_statush>
     634:	89 83       	std	Y+1, r24	; 0x01
     636:	89 81       	ldd	r24, Y+1	; 0x01
     638:	82 ff       	sbrs	r24, 2
     63a:	08 c0       	rjmp	.+16     	; 0x64c <_Z20mcp2515_send_messageP4tCAN+0x34>
     63c:	89 81       	ldd	r24, Y+1	; 0x01
     63e:	84 ff       	sbrs	r24, 4
     640:	07 c0       	rjmp	.+14     	; 0x650 <_Z20mcp2515_send_messageP4tCAN+0x38>
     642:	89 81       	ldd	r24, Y+1	; 0x01
     644:	86 fd       	sbrc	r24, 6
     646:	4d c0       	rjmp	.+154    	; 0x6e2 <_Z20mcp2515_send_messageP4tCAN+0xca>
     648:	14 e0       	ldi	r17, 0x04	; 4
     64a:	03 c0       	rjmp	.+6      	; 0x652 <_Z20mcp2515_send_messageP4tCAN+0x3a>
     64c:	10 e0       	ldi	r17, 0x00	; 0
     64e:	01 c0       	rjmp	.+2      	; 0x652 <_Z20mcp2515_send_messageP4tCAN+0x3a>
     650:	12 e0       	ldi	r17, 0x02	; 2
     652:	2a 98       	cbi	0x05, 2	; 5
     654:	81 2f       	mov	r24, r17
     656:	80 64       	ori	r24, 0x40	; 64
     658:	0e 94 73 01 	call	0x2e6	; 0x2e6 <_Z8spi_putch>
     65c:	f7 01       	movw	r30, r14
     65e:	80 81       	ld	r24, Z
     660:	91 81       	ldd	r25, Z+1	; 0x01
     662:	23 e0       	ldi	r18, 0x03	; 3
     664:	96 95       	lsr	r25
     666:	87 95       	ror	r24
     668:	2a 95       	dec	r18
     66a:	e1 f7       	brne	.-8      	; 0x664 <_Z20mcp2515_send_messageP4tCAN+0x4c>
     66c:	0e 94 73 01 	call	0x2e6	; 0x2e6 <_Z8spi_putch>
     670:	f7 01       	movw	r30, r14
     672:	80 81       	ld	r24, Z
     674:	82 95       	swap	r24
     676:	88 0f       	add	r24, r24
     678:	80 7e       	andi	r24, 0xE0	; 224
     67a:	0e 94 73 01 	call	0x2e6	; 0x2e6 <_Z8spi_putch>
     67e:	80 e0       	ldi	r24, 0x00	; 0
     680:	0e 94 73 01 	call	0x2e6	; 0x2e6 <_Z8spi_putch>
     684:	80 e0       	ldi	r24, 0x00	; 0
     686:	0e 94 73 01 	call	0x2e6	; 0x2e6 <_Z8spi_putch>
     68a:	f7 01       	movw	r30, r14
     68c:	84 81       	ldd	r24, Z+4	; 0x04
     68e:	08 2f       	mov	r16, r24
     690:	06 95       	lsr	r16
     692:	0f 70       	andi	r16, 0x0F	; 15
     694:	80 ff       	sbrs	r24, 0
     696:	05 c0       	rjmp	.+10     	; 0x6a2 <_Z20mcp2515_send_messageP4tCAN+0x8a>
     698:	80 2f       	mov	r24, r16
     69a:	80 64       	ori	r24, 0x40	; 64
     69c:	0e 94 73 01 	call	0x2e6	; 0x2e6 <_Z8spi_putch>
     6a0:	10 c0       	rjmp	.+32     	; 0x6c2 <_Z20mcp2515_send_messageP4tCAN+0xaa>
     6a2:	80 2f       	mov	r24, r16
     6a4:	0e 94 73 01 	call	0x2e6	; 0x2e6 <_Z8spi_putch>
     6a8:	f5 e0       	ldi	r31, 0x05	; 5
     6aa:	ef 0e       	add	r14, r31
     6ac:	f1 1c       	adc	r15, r1
     6ae:	d1 2c       	mov	r13, r1
     6b0:	d0 16       	cp	r13, r16
     6b2:	39 f0       	breq	.+14     	; 0x6c2 <_Z20mcp2515_send_messageP4tCAN+0xaa>
     6b4:	f7 01       	movw	r30, r14
     6b6:	81 91       	ld	r24, Z+
     6b8:	7f 01       	movw	r14, r30
     6ba:	0e 94 73 01 	call	0x2e6	; 0x2e6 <_Z8spi_putch>
     6be:	d3 94       	inc	r13
     6c0:	f7 cf       	rjmp	.-18     	; 0x6b0 <_Z20mcp2515_send_messageP4tCAN+0x98>
     6c2:	2a 9a       	sbi	0x05, 2	; 5
     6c4:	f2 e0       	ldi	r31, 0x02	; 2
     6c6:	fa 95       	dec	r31
     6c8:	f1 f7       	brne	.-4      	; 0x6c6 <_Z20mcp2515_send_messageP4tCAN+0xae>
     6ca:	00 c0       	rjmp	.+0      	; 0x6cc <_Z20mcp2515_send_messageP4tCAN+0xb4>
     6cc:	2a 98       	cbi	0x05, 2	; 5
     6ce:	11 11       	cpse	r17, r1
     6d0:	01 c0       	rjmp	.+2      	; 0x6d4 <_Z20mcp2515_send_messageP4tCAN+0xbc>
     6d2:	11 e0       	ldi	r17, 0x01	; 1
     6d4:	81 2f       	mov	r24, r17
     6d6:	80 68       	ori	r24, 0x80	; 128
     6d8:	0e 94 73 01 	call	0x2e6	; 0x2e6 <_Z8spi_putch>
     6dc:	2a 9a       	sbi	0x05, 2	; 5
     6de:	81 2f       	mov	r24, r17
     6e0:	01 c0       	rjmp	.+2      	; 0x6e4 <_Z20mcp2515_send_messageP4tCAN+0xcc>
     6e2:	80 e0       	ldi	r24, 0x00	; 0
     6e4:	0f 90       	pop	r0
     6e6:	df 91       	pop	r29
     6e8:	cf 91       	pop	r28
     6ea:	1f 91       	pop	r17
     6ec:	0f 91       	pop	r16
     6ee:	ff 90       	pop	r15
     6f0:	ef 90       	pop	r14
     6f2:	df 90       	pop	r13
     6f4:	08 95       	ret

000006f6 <_Z8setColori>:
     6f6:	82 30       	cpi	r24, 0x02	; 2
     6f8:	91 05       	cpc	r25, r1
     6fa:	49 f0       	breq	.+18     	; 0x70e <_Z8setColori+0x18>
     6fc:	83 30       	cpi	r24, 0x03	; 3
     6fe:	91 05       	cpc	r25, r1
     700:	51 f0       	breq	.+20     	; 0x716 <_Z8setColori+0x20>
     702:	01 97       	sbiw	r24, 0x01	; 1
     704:	61 f4       	brne	.+24     	; 0x71e <_Z8setColori+0x28>
     706:	5d 98       	cbi	0x0b, 5	; 11
     708:	5e 98       	cbi	0x0b, 6	; 11
     70a:	5f 9a       	sbi	0x0b, 7	; 11
     70c:	08 95       	ret
     70e:	5f 98       	cbi	0x0b, 7	; 11
     710:	5e 98       	cbi	0x0b, 6	; 11
     712:	5d 9a       	sbi	0x0b, 5	; 11
     714:	08 95       	ret
     716:	5f 98       	cbi	0x0b, 7	; 11
     718:	5d 98       	cbi	0x0b, 5	; 11
     71a:	5e 9a       	sbi	0x0b, 6	; 11
     71c:	08 95       	ret
     71e:	0c 94 85 00 	jmp	0x10a	; 0x10a <_Z8setColori.part.2>

00000722 <_Z9init_uartj>:
     722:	01 97       	sbiw	r24, 0x01	; 1
     724:	9c 01       	movw	r18, r24
     726:	40 e0       	ldi	r20, 0x00	; 0
     728:	50 e0       	ldi	r21, 0x00	; 0
     72a:	60 e2       	ldi	r22, 0x20	; 32
     72c:	71 ea       	ldi	r23, 0xA1	; 161
     72e:	87 e0       	ldi	r24, 0x07	; 7
     730:	90 e0       	ldi	r25, 0x00	; 0
     732:	0e 94 91 24 	call	0x4922	; 0x4922 <__divmodsi4>
     736:	83 2f       	mov	r24, r19
     738:	99 27       	eor	r25, r25
     73a:	80 93 c5 00 	sts	0x00C5, r24	; 0x8000c5 <__TEXT_REGION_LENGTH__+0x7e00c5>
     73e:	20 93 c4 00 	sts	0x00C4, r18	; 0x8000c4 <__TEXT_REGION_LENGTH__+0x7e00c4>
     742:	e1 ec       	ldi	r30, 0xC1	; 193
     744:	f0 e0       	ldi	r31, 0x00	; 0
     746:	80 81       	ld	r24, Z
     748:	88 69       	ori	r24, 0x98	; 152
     74a:	80 83       	st	Z, r24
     74c:	e2 ec       	ldi	r30, 0xC2	; 194
     74e:	f0 e0       	ldi	r31, 0x00	; 0
     750:	80 81       	ld	r24, Z
     752:	8e 60       	ori	r24, 0x0E	; 14
     754:	80 83       	st	Z, r24
     756:	08 95       	ret

00000758 <_Z9uart_putch>:
     758:	90 91 c0 00 	lds	r25, 0x00C0	; 0x8000c0 <__TEXT_REGION_LENGTH__+0x7e00c0>
     75c:	95 ff       	sbrs	r25, 5
     75e:	fc cf       	rjmp	.-8      	; 0x758 <_Z9uart_putch>
     760:	80 93 c6 00 	sts	0x00C6, r24	; 0x8000c6 <__TEXT_REGION_LENGTH__+0x7e00c6>
     764:	08 95       	ret

00000766 <_ZL4fputcP6__file>:
     766:	0e 94 ac 03 	call	0x758	; 0x758 <_Z9uart_putch>
     76a:	80 e0       	ldi	r24, 0x00	; 0
     76c:	90 e0       	ldi	r25, 0x00	; 0
     76e:	08 95       	ret

00000770 <_Z9uart_putsPKc>:
     770:	cf 93       	push	r28
     772:	df 93       	push	r29
     774:	ec 01       	movw	r28, r24
     776:	89 91       	ld	r24, Y+
     778:	88 23       	and	r24, r24
     77a:	19 f0       	breq	.+6      	; 0x782 <_Z9uart_putsPKc+0x12>
     77c:	0e 94 ac 03 	call	0x758	; 0x758 <_Z9uart_putch>
     780:	fa cf       	rjmp	.-12     	; 0x776 <_Z9uart_putsPKc+0x6>
     782:	df 91       	pop	r29
     784:	cf 91       	pop	r28
     786:	08 95       	ret

00000788 <_Z17print_can_messageP4tCAN>:
     788:	ef 92       	push	r14
     78a:	ff 92       	push	r15
     78c:	0f 93       	push	r16
     78e:	1f 93       	push	r17
     790:	cf 93       	push	r28
     792:	df 93       	push	r29
     794:	ec 01       	movw	r28, r24
     796:	1c 81       	ldd	r17, Y+4	; 0x04
     798:	16 95       	lsr	r17
     79a:	1f 70       	andi	r17, 0x0F	; 15
     79c:	89 81       	ldd	r24, Y+1	; 0x01
     79e:	8f 93       	push	r24
     7a0:	88 81       	ld	r24, Y
     7a2:	8f 93       	push	r24
     7a4:	8e eb       	ldi	r24, 0xBE	; 190
     7a6:	93 e0       	ldi	r25, 0x03	; 3
     7a8:	9f 93       	push	r25
     7aa:	8f 93       	push	r24
     7ac:	0e 94 d7 24 	call	0x49ae	; 0x49ae <printf>
     7b0:	8b 81       	ldd	r24, Y+3	; 0x03
     7b2:	8f 93       	push	r24
     7b4:	8a 81       	ldd	r24, Y+2	; 0x02
     7b6:	8f 93       	push	r24
     7b8:	8e ec       	ldi	r24, 0xCE	; 206
     7ba:	93 e0       	ldi	r25, 0x03	; 3
     7bc:	9f 93       	push	r25
     7be:	8f 93       	push	r24
     7c0:	0e 94 d7 24 	call	0x49ae	; 0x49ae <printf>
     7c4:	1f 92       	push	r1
     7c6:	1f 93       	push	r17
     7c8:	8e ed       	ldi	r24, 0xDE	; 222
     7ca:	93 e0       	ldi	r25, 0x03	; 3
     7cc:	9f 93       	push	r25
     7ce:	8f 93       	push	r24
     7d0:	0e 94 d7 24 	call	0x49ae	; 0x49ae <printf>
     7d4:	8c 81       	ldd	r24, Y+4	; 0x04
     7d6:	87 95       	ror	r24
     7d8:	88 27       	eor	r24, r24
     7da:	87 95       	ror	r24
     7dc:	88 0f       	add	r24, r24
     7de:	88 0b       	sbc	r24, r24
     7e0:	28 2f       	mov	r18, r24
     7e2:	08 2e       	mov	r0, r24
     7e4:	00 0c       	add	r0, r0
     7e6:	33 0b       	sbc	r19, r19
     7e8:	3f 93       	push	r19
     7ea:	8f 93       	push	r24
     7ec:	8b ee       	ldi	r24, 0xEB	; 235
     7ee:	93 e0       	ldi	r25, 0x03	; 3
     7f0:	9f 93       	push	r25
     7f2:	8f 93       	push	r24
     7f4:	0e 94 d7 24 	call	0x49ae	; 0x49ae <printf>
     7f8:	8c 81       	ldd	r24, Y+4	; 0x04
     7fa:	2d b7       	in	r18, 0x3d	; 61
     7fc:	3e b7       	in	r19, 0x3e	; 62
     7fe:	20 5f       	subi	r18, 0xF0	; 240
     800:	3f 4f       	sbci	r19, 0xFF	; 255
     802:	0f b6       	in	r0, 0x3f	; 63
     804:	f8 94       	cli
     806:	3e bf       	out	0x3e, r19	; 62
     808:	0f be       	out	0x3f, r0	; 63
     80a:	2d bf       	out	0x3d, r18	; 61
     80c:	80 fd       	sbrc	r24, 0
     80e:	27 c0       	rjmp	.+78     	; 0x85e <_Z17print_can_messageP4tCAN+0xd6>
     810:	88 ef       	ldi	r24, 0xF8	; 248
     812:	93 e0       	ldi	r25, 0x03	; 3
     814:	9f 93       	push	r25
     816:	8f 93       	push	r24
     818:	0e 94 d7 24 	call	0x49ae	; 0x49ae <printf>
     81c:	25 96       	adiw	r28, 0x05	; 5
     81e:	0f 90       	pop	r0
     820:	0f 90       	pop	r0
     822:	00 e0       	ldi	r16, 0x00	; 0
     824:	80 e0       	ldi	r24, 0x00	; 0
     826:	e8 2e       	mov	r14, r24
     828:	84 e0       	ldi	r24, 0x04	; 4
     82a:	f8 2e       	mov	r15, r24
     82c:	01 17       	cp	r16, r17
     82e:	69 f0       	breq	.+26     	; 0x84a <_Z17print_can_messageP4tCAN+0xc2>
     830:	89 91       	ld	r24, Y+
     832:	1f 92       	push	r1
     834:	8f 93       	push	r24
     836:	ff 92       	push	r15
     838:	ef 92       	push	r14
     83a:	0e 94 d7 24 	call	0x49ae	; 0x49ae <printf>
     83e:	0f 5f       	subi	r16, 0xFF	; 255
     840:	0f 90       	pop	r0
     842:	0f 90       	pop	r0
     844:	0f 90       	pop	r0
     846:	0f 90       	pop	r0
     848:	f1 cf       	rjmp	.-30     	; 0x82c <_Z17print_can_messageP4tCAN+0xa4>
     84a:	84 e4       	ldi	r24, 0x44	; 68
     84c:	95 e0       	ldi	r25, 0x05	; 5
     84e:	df 91       	pop	r29
     850:	cf 91       	pop	r28
     852:	1f 91       	pop	r17
     854:	0f 91       	pop	r16
     856:	ff 90       	pop	r15
     858:	ef 90       	pop	r14
     85a:	0c 94 ed 24 	jmp	0x49da	; 0x49da <puts>
     85e:	df 91       	pop	r29
     860:	cf 91       	pop	r28
     862:	1f 91       	pop	r17
     864:	0f 91       	pop	r16
     866:	ff 90       	pop	r15
     868:	ef 90       	pop	r14
     86a:	08 95       	ret

0000086c <_Z10sendCANmsgPhi>:
     86c:	cf 93       	push	r28
     86e:	df 93       	push	r29
     870:	cd b7       	in	r28, 0x3d	; 61
     872:	de b7       	in	r29, 0x3e	; 62
     874:	2d 97       	sbiw	r28, 0x0d	; 13
     876:	0f b6       	in	r0, 0x3f	; 63
     878:	f8 94       	cli
     87a:	de bf       	out	0x3e, r29	; 62
     87c:	0f be       	out	0x3f, r0	; 63
     87e:	cd bf       	out	0x3d, r28	; 61
     880:	ac 01       	movw	r20, r24
     882:	80 91 0a 07 	lds	r24, 0x070A	; 0x80070a <canBusAddr>
     886:	90 91 0b 07 	lds	r25, 0x070B	; 0x80070b <canBusAddr+0x1>
     88a:	9a 83       	std	Y+2, r25	; 0x02
     88c:	89 83       	std	Y+1, r24	; 0x01
     88e:	1c 82       	std	Y+4, r1	; 0x04
     890:	1b 82       	std	Y+3, r1	; 0x03
     892:	9d 81       	ldd	r25, Y+5	; 0x05
     894:	26 2f       	mov	r18, r22
     896:	2f 70       	andi	r18, 0x0F	; 15
     898:	22 0f       	add	r18, r18
     89a:	90 7e       	andi	r25, 0xE0	; 224
     89c:	92 2b       	or	r25, r18
     89e:	9d 83       	std	Y+5, r25	; 0x05
     8a0:	de 01       	movw	r26, r28
     8a2:	16 96       	adiw	r26, 0x06	; 6
     8a4:	fa 01       	movw	r30, r20
     8a6:	cf 01       	movw	r24, r30
     8a8:	84 1b       	sub	r24, r20
     8aa:	95 0b       	sbc	r25, r21
     8ac:	86 17       	cp	r24, r22
     8ae:	97 07       	cpc	r25, r23
     8b0:	1c f4       	brge	.+6      	; 0x8b8 <_Z10sendCANmsgPhi+0x4c>
     8b2:	81 91       	ld	r24, Z+
     8b4:	8d 93       	st	X+, r24
     8b6:	f7 cf       	rjmp	.-18     	; 0x8a6 <_Z10sendCANmsgPhi+0x3a>
     8b8:	ce 01       	movw	r24, r28
     8ba:	01 96       	adiw	r24, 0x01	; 1
     8bc:	0e 94 0c 03 	call	0x618	; 0x618 <_Z20mcp2515_send_messageP4tCAN>
     8c0:	81 11       	cpse	r24, r1
     8c2:	11 c0       	rjmp	.+34     	; 0x8e6 <_Z10sendCANmsgPhi+0x7a>
     8c4:	88 e0       	ldi	r24, 0x08	; 8
     8c6:	94 e0       	ldi	r25, 0x04	; 4
     8c8:	0e 94 b8 03 	call	0x770	; 0x770 <_Z9uart_putsPKc>
     8cc:	ce 01       	movw	r24, r28
     8ce:	01 96       	adiw	r24, 0x01	; 1
     8d0:	0e 94 c4 03 	call	0x788	; 0x788 <_Z17print_can_messageP4tCAN>
     8d4:	82 e0       	ldi	r24, 0x02	; 2
     8d6:	90 e0       	ldi	r25, 0x00	; 0
     8d8:	90 93 11 07 	sts	0x0711, r25	; 0x800711 <errorCode+0x1>
     8dc:	80 93 10 07 	sts	0x0710, r24	; 0x800710 <errorCode>
     8e0:	8f ef       	ldi	r24, 0xFF	; 255
     8e2:	9f ef       	ldi	r25, 0xFF	; 255
     8e4:	02 c0       	rjmp	.+4      	; 0x8ea <_Z10sendCANmsgPhi+0x7e>
     8e6:	80 e0       	ldi	r24, 0x00	; 0
     8e8:	90 e0       	ldi	r25, 0x00	; 0
     8ea:	2d 96       	adiw	r28, 0x0d	; 13
     8ec:	0f b6       	in	r0, 0x3f	; 63
     8ee:	f8 94       	cli
     8f0:	de bf       	out	0x3e, r29	; 62
     8f2:	0f be       	out	0x3f, r0	; 63
     8f4:	cd bf       	out	0x3d, r28	; 61
     8f6:	df 91       	pop	r29
     8f8:	cf 91       	pop	r28
     8fa:	08 95       	ret

000008fc <_Z9sendErrorh>:
     8fc:	cf 93       	push	r28
     8fe:	df 93       	push	r29
     900:	00 d0       	rcall	.+0      	; 0x902 <__stack+0x3>
     902:	cd b7       	in	r28, 0x3d	; 61
     904:	de b7       	in	r29, 0x3e	; 62
     906:	91 e0       	ldi	r25, 0x01	; 1
     908:	99 83       	std	Y+1, r25	; 0x01
     90a:	8a 83       	std	Y+2, r24	; 0x02
     90c:	1f 92       	push	r1
     90e:	8f 93       	push	r24
     910:	8c e2       	ldi	r24, 0x2C	; 44
     912:	94 e0       	ldi	r25, 0x04	; 4
     914:	9f 93       	push	r25
     916:	8f 93       	push	r24
     918:	0e 94 d7 24 	call	0x49ae	; 0x49ae <printf>
     91c:	62 e0       	ldi	r22, 0x02	; 2
     91e:	70 e0       	ldi	r23, 0x00	; 0
     920:	ce 01       	movw	r24, r28
     922:	01 96       	adiw	r24, 0x01	; 1
     924:	0e 94 36 04 	call	0x86c	; 0x86c <_Z10sendCANmsgPhi>
     928:	0f 90       	pop	r0
     92a:	0f 90       	pop	r0
     92c:	0f 90       	pop	r0
     92e:	0f 90       	pop	r0
     930:	0f 90       	pop	r0
     932:	0f 90       	pop	r0
     934:	df 91       	pop	r29
     936:	cf 91       	pop	r28
     938:	08 95       	ret

0000093a <_Z15sendMeasurementjh>:
     93a:	cf 93       	push	r28
     93c:	df 93       	push	r29
     93e:	00 d0       	rcall	.+0      	; 0x940 <_Z15sendMeasurementjh+0x6>
     940:	00 d0       	rcall	.+0      	; 0x942 <_Z15sendMeasurementjh+0x8>
     942:	cd b7       	in	r28, 0x3d	; 61
     944:	de b7       	in	r29, 0x3e	; 62
     946:	22 e0       	ldi	r18, 0x02	; 2
     948:	29 83       	std	Y+1, r18	; 0x01
     94a:	9a 83       	std	Y+2, r25	; 0x02
     94c:	8b 83       	std	Y+3, r24	; 0x03
     94e:	6c 83       	std	Y+4, r22	; 0x04
     950:	1f 92       	push	r1
     952:	6f 93       	push	r22
     954:	9f 93       	push	r25
     956:	8f 93       	push	r24
     958:	8e e3       	ldi	r24, 0x3E	; 62
     95a:	94 e0       	ldi	r25, 0x04	; 4
     95c:	9f 93       	push	r25
     95e:	8f 93       	push	r24
     960:	0e 94 d7 24 	call	0x49ae	; 0x49ae <printf>
     964:	64 e0       	ldi	r22, 0x04	; 4
     966:	70 e0       	ldi	r23, 0x00	; 0
     968:	ce 01       	movw	r24, r28
     96a:	01 96       	adiw	r24, 0x01	; 1
     96c:	0e 94 36 04 	call	0x86c	; 0x86c <_Z10sendCANmsgPhi>
     970:	0f 90       	pop	r0
     972:	0f 90       	pop	r0
     974:	0f 90       	pop	r0
     976:	0f 90       	pop	r0
     978:	0f 90       	pop	r0
     97a:	0f 90       	pop	r0
     97c:	0f 90       	pop	r0
     97e:	0f 90       	pop	r0
     980:	0f 90       	pop	r0
     982:	0f 90       	pop	r0
     984:	df 91       	pop	r29
     986:	cf 91       	pop	r28
     988:	08 95       	ret

0000098a <_Z4initv>:
     98a:	cf 93       	push	r28
     98c:	df 93       	push	r29
     98e:	f9 99       	sbic	0x1f, 1	; 31
     990:	fe cf       	rjmp	.-4      	; 0x98e <_Z4initv+0x4>
     992:	80 e0       	ldi	r24, 0x00	; 0
     994:	90 e0       	ldi	r25, 0x00	; 0
     996:	0e 94 ae 27 	call	0x4f5c	; 0x4f5c <eeprom_read_word>
     99a:	ec 01       	movw	r28, r24
     99c:	80 52       	subi	r24, 0x20	; 32
     99e:	96 40       	sbci	r25, 0x06	; 6
     9a0:	80 3e       	cpi	r24, 0xE0	; 224
     9a2:	99 40       	sbci	r25, 0x09	; 9
     9a4:	c0 f4       	brcc	.+48     	; 0x9d6 <_Z4initv+0x4c>
     9a6:	df 93       	push	r29
     9a8:	cf 93       	push	r28
     9aa:	8d e5       	ldi	r24, 0x5D	; 93
     9ac:	94 e0       	ldi	r25, 0x04	; 4
     9ae:	9f 93       	push	r25
     9b0:	8f 93       	push	r24
     9b2:	0e 94 d7 24 	call	0x49ae	; 0x49ae <printf>
     9b6:	ce 01       	movw	r24, r28
     9b8:	a0 e0       	ldi	r26, 0x00	; 0
     9ba:	b0 e0       	ldi	r27, 0x00	; 0
     9bc:	80 93 0a 07 	sts	0x070A, r24	; 0x80070a <canBusAddr>
     9c0:	90 93 0b 07 	sts	0x070B, r25	; 0x80070b <canBusAddr+0x1>
     9c4:	a0 93 0c 07 	sts	0x070C, r26	; 0x80070c <canBusAddr+0x2>
     9c8:	b0 93 0d 07 	sts	0x070D, r27	; 0x80070d <canBusAddr+0x3>
     9cc:	0f 90       	pop	r0
     9ce:	0f 90       	pop	r0
     9d0:	0f 90       	pop	r0
     9d2:	0f 90       	pop	r0
     9d4:	12 c0       	rjmp	.+36     	; 0x9fa <_Z4initv+0x70>
     9d6:	1f 92       	push	r1
     9d8:	1f 92       	push	r1
     9da:	86 e0       	ldi	r24, 0x06	; 6
     9dc:	8f 93       	push	r24
     9de:	80 e2       	ldi	r24, 0x20	; 32
     9e0:	8f 93       	push	r24
     9e2:	82 e8       	ldi	r24, 0x82	; 130
     9e4:	94 e0       	ldi	r25, 0x04	; 4
     9e6:	9f 93       	push	r25
     9e8:	8f 93       	push	r24
     9ea:	0e 94 d7 24 	call	0x49ae	; 0x49ae <printf>
     9ee:	0f 90       	pop	r0
     9f0:	0f 90       	pop	r0
     9f2:	0f 90       	pop	r0
     9f4:	0f 90       	pop	r0
     9f6:	0f 90       	pop	r0
     9f8:	0f 90       	pop	r0
     9fa:	80 91 0a 07 	lds	r24, 0x070A	; 0x80070a <canBusAddr>
     9fe:	90 91 0b 07 	lds	r25, 0x070B	; 0x80070b <canBusAddr+0x1>
     a02:	0e 94 ba 01 	call	0x374	; 0x374 <_Z12mcp2515_initj>
     a06:	81 11       	cpse	r24, r1
     a08:	0d c0       	rjmp	.+26     	; 0xa24 <_Z4initv+0x9a>
     a0a:	86 eb       	ldi	r24, 0xB6	; 182
     a0c:	94 e0       	ldi	r25, 0x04	; 4
     a0e:	0e 94 b8 03 	call	0x770	; 0x770 <_Z9uart_putsPKc>
     a12:	83 e0       	ldi	r24, 0x03	; 3
     a14:	90 e0       	ldi	r25, 0x00	; 0
     a16:	90 93 11 07 	sts	0x0711, r25	; 0x800711 <errorCode+0x1>
     a1a:	80 93 10 07 	sts	0x0710, r24	; 0x800710 <errorCode>
     a1e:	0e 94 7e 04 	call	0x8fc	; 0x8fc <_Z9sendErrorh>
     a22:	ff cf       	rjmp	.-2      	; 0xa22 <_Z4initv+0x98>
     a24:	88 ed       	ldi	r24, 0xD8	; 216
     a26:	94 e0       	ldi	r25, 0x04	; 4
     a28:	0e 94 b8 03 	call	0x770	; 0x770 <_Z9uart_putsPKc>
     a2c:	80 e2       	ldi	r24, 0x20	; 32
     a2e:	80 93 b8 00 	sts	0x00B8, r24	; 0x8000b8 <__TEXT_REGION_LENGTH__+0x7e00b8>
     a32:	40 e0       	ldi	r20, 0x00	; 0
     a34:	69 e2       	ldi	r22, 0x29	; 41
     a36:	86 e5       	ldi	r24, 0x56	; 86
     a38:	95 e0       	ldi	r25, 0x05	; 5
     a3a:	0e 94 ca 00 	call	0x194	; 0x194 <_ZN16Adafruit_VL53L0X5beginEhb>
     a3e:	81 11       	cpse	r24, r1
     a40:	0d c0       	rjmp	.+26     	; 0xa5c <_Z4initv+0xd2>
     a42:	8c ee       	ldi	r24, 0xEC	; 236
     a44:	94 e0       	ldi	r25, 0x04	; 4
     a46:	0e 94 b8 03 	call	0x770	; 0x770 <_Z9uart_putsPKc>
     a4a:	84 e0       	ldi	r24, 0x04	; 4
     a4c:	90 e0       	ldi	r25, 0x00	; 0
     a4e:	90 93 11 07 	sts	0x0711, r25	; 0x800711 <errorCode+0x1>
     a52:	80 93 10 07 	sts	0x0710, r24	; 0x800710 <errorCode>
     a56:	0e 94 7e 04 	call	0x8fc	; 0x8fc <_Z9sendErrorh>
     a5a:	ff cf       	rjmp	.-2      	; 0xa5a <_Z4initv+0xd0>
     a5c:	df 91       	pop	r29
     a5e:	cf 91       	pop	r28
     a60:	08 95       	ret

00000a62 <_Z12checkMessagev>:
     a62:	1f 93       	push	r17
     a64:	cf 93       	push	r28
     a66:	df 93       	push	r29
     a68:	cd b7       	in	r28, 0x3d	; 61
     a6a:	de b7       	in	r29, 0x3e	; 62
     a6c:	60 97       	sbiw	r28, 0x10	; 16
     a6e:	0f b6       	in	r0, 0x3f	; 63
     a70:	f8 94       	cli
     a72:	de bf       	out	0x3e, r29	; 62
     a74:	0f be       	out	0x3f, r0	; 63
     a76:	cd bf       	out	0x3d, r28	; 61
     a78:	ce 01       	movw	r24, r28
     a7a:	01 96       	adiw	r24, 0x01	; 1
     a7c:	0e 94 90 02 	call	0x520	; 0x520 <_Z19mcp2515_get_messageP4tCAN>
     a80:	88 23       	and	r24, r24
     a82:	09 f4       	brne	.+2      	; 0xa86 <_Z12checkMessagev+0x24>
     a84:	62 c0       	rjmp	.+196    	; 0xb4a <_Z12checkMessagev+0xe8>
     a86:	8c 81       	ldd	r24, Y+4	; 0x04
     a88:	8f 93       	push	r24
     a8a:	8b 81       	ldd	r24, Y+3	; 0x03
     a8c:	8f 93       	push	r24
     a8e:	8a 81       	ldd	r24, Y+2	; 0x02
     a90:	8f 93       	push	r24
     a92:	89 81       	ldd	r24, Y+1	; 0x01
     a94:	8f 93       	push	r24
     a96:	86 e0       	ldi	r24, 0x06	; 6
     a98:	95 e0       	ldi	r25, 0x05	; 5
     a9a:	9f 93       	push	r25
     a9c:	8f 93       	push	r24
     a9e:	0e 94 d7 24 	call	0x49ae	; 0x49ae <printf>
     aa2:	0f 90       	pop	r0
     aa4:	0f 90       	pop	r0
     aa6:	0f 90       	pop	r0
     aa8:	0f 90       	pop	r0
     aaa:	0f 90       	pop	r0
     aac:	0f 90       	pop	r0
     aae:	89 81       	ldd	r24, Y+1	; 0x01
     ab0:	9a 81       	ldd	r25, Y+2	; 0x02
     ab2:	89 2b       	or	r24, r25
     ab4:	09 f0       	breq	.+2      	; 0xab8 <_Z12checkMessagev+0x56>
     ab6:	49 c0       	rjmp	.+146    	; 0xb4a <_Z12checkMessagev+0xe8>
     ab8:	8b 81       	ldd	r24, Y+3	; 0x03
     aba:	9c 81       	ldd	r25, Y+4	; 0x04
     abc:	00 97       	sbiw	r24, 0x00	; 0
     abe:	09 f4       	brne	.+2      	; 0xac2 <_Z12checkMessagev+0x60>
     ac0:	44 c0       	rjmp	.+136    	; 0xb4a <_Z12checkMessagev+0xe8>
     ac2:	a0 e0       	ldi	r26, 0x00	; 0
     ac4:	b0 e0       	ldi	r27, 0x00	; 0
     ac6:	40 91 0a 07 	lds	r20, 0x070A	; 0x80070a <canBusAddr>
     aca:	50 91 0b 07 	lds	r21, 0x070B	; 0x80070b <canBusAddr+0x1>
     ace:	60 91 0c 07 	lds	r22, 0x070C	; 0x80070c <canBusAddr+0x2>
     ad2:	70 91 0d 07 	lds	r23, 0x070D	; 0x80070d <canBusAddr+0x3>
     ad6:	84 17       	cp	r24, r20
     ad8:	95 07       	cpc	r25, r21
     ada:	a6 07       	cpc	r26, r22
     adc:	b7 07       	cpc	r27, r23
     ade:	a9 f5       	brne	.+106    	; 0xb4a <_Z12checkMessagev+0xe8>
     ae0:	1d 81       	ldd	r17, Y+5	; 0x05
     ae2:	16 95       	lsr	r17
     ae4:	1f 70       	andi	r17, 0x0F	; 15
     ae6:	ce 01       	movw	r24, r28
     ae8:	01 96       	adiw	r24, 0x01	; 1
     aea:	0e 94 c4 03 	call	0x788	; 0x788 <_Z17print_can_messageP4tCAN>
     aee:	8e 81       	ldd	r24, Y+6	; 0x06
     af0:	83 30       	cpi	r24, 0x03	; 3
     af2:	b1 f0       	breq	.+44     	; 0xb20 <_Z12checkMessagev+0xbe>
     af4:	84 30       	cpi	r24, 0x04	; 4
     af6:	31 f5       	brne	.+76     	; 0xb44 <_Z12checkMessagev+0xe2>
     af8:	80 e3       	ldi	r24, 0x30	; 48
     afa:	95 e0       	ldi	r25, 0x05	; 5
     afc:	0e 94 ed 24 	call	0x49da	; 0x49da <puts>
     b00:	80 91 bb 03 	lds	r24, 0x03BB	; 0x8003bb <refArrayQuadrants+0x10>
     b04:	90 91 bc 03 	lds	r25, 0x03BC	; 0x8003bc <refArrayQuadrants+0x11>
     b08:	a0 91 bd 03 	lds	r26, 0x03BD	; 0x8003bd <refArrayQuadrants+0x12>
     b0c:	8e 87       	std	Y+14, r24	; 0x0e
     b0e:	9f 87       	std	Y+15, r25	; 0x0f
     b10:	a8 8b       	std	Y+16, r26	; 0x10
     b12:	63 e0       	ldi	r22, 0x03	; 3
     b14:	70 e0       	ldi	r23, 0x00	; 0
     b16:	ce 01       	movw	r24, r28
     b18:	0e 96       	adiw	r24, 0x0e	; 14
     b1a:	0e 94 36 04 	call	0x86c	; 0x86c <_Z10sendCANmsgPhi>
     b1e:	15 c0       	rjmp	.+42     	; 0xb4a <_Z12checkMessagev+0xe8>
     b20:	14 30       	cpi	r17, 0x04	; 4
     b22:	70 f0       	brcs	.+28     	; 0xb40 <_Z12checkMessagev+0xde>
     b24:	6f 81       	ldd	r22, Y+7	; 0x07
     b26:	78 85       	ldd	r23, Y+8	; 0x08
     b28:	76 27       	eor	r23, r22
     b2a:	67 27       	eor	r22, r23
     b2c:	76 27       	eor	r23, r22
     b2e:	f9 99       	sbic	0x1f, 1	; 31
     b30:	fe cf       	rjmp	.-4      	; 0xb2e <_Z12checkMessagev+0xcc>
     b32:	80 e0       	ldi	r24, 0x00	; 0
     b34:	90 e0       	ldi	r25, 0x00	; 0
     b36:	0e 94 b4 27 	call	0x4f68	; 0x4f68 <eeprom_write_word>
     b3a:	0e 94 c5 04 	call	0x98a	; 0x98a <_Z4initv>
     b3e:	05 c0       	rjmp	.+10     	; 0xb4a <_Z12checkMessagev+0xe8>
     b40:	86 e0       	ldi	r24, 0x06	; 6
     b42:	01 c0       	rjmp	.+2      	; 0xb46 <_Z12checkMessagev+0xe4>
     b44:	85 e0       	ldi	r24, 0x05	; 5
     b46:	0e 94 7e 04 	call	0x8fc	; 0x8fc <_Z9sendErrorh>
     b4a:	60 96       	adiw	r28, 0x10	; 16
     b4c:	0f b6       	in	r0, 0x3f	; 63
     b4e:	f8 94       	cli
     b50:	de bf       	out	0x3e, r29	; 62
     b52:	0f be       	out	0x3f, r0	; 63
     b54:	cd bf       	out	0x3d, r28	; 61
     b56:	df 91       	pop	r29
     b58:	cf 91       	pop	r28
     b5a:	1f 91       	pop	r17
     b5c:	08 95       	ret

00000b5e <__vector_1>:
     b5e:	1f 92       	push	r1
     b60:	0f 92       	push	r0
     b62:	0f b6       	in	r0, 0x3f	; 63
     b64:	0f 92       	push	r0
     b66:	11 24       	eor	r1, r1
     b68:	0f 90       	pop	r0
     b6a:	0f be       	out	0x3f, r0	; 63
     b6c:	0f 90       	pop	r0
     b6e:	1f 90       	pop	r1
     b70:	18 95       	reti

00000b72 <main>:
     b72:	cf 93       	push	r28
     b74:	df 93       	push	r29
     b76:	cd b7       	in	r28, 0x3d	; 61
     b78:	de b7       	in	r29, 0x3e	; 62
     b7a:	69 97       	sbiw	r28, 0x19	; 25
     b7c:	0f b6       	in	r0, 0x3f	; 63
     b7e:	f8 94       	cli
     b80:	de bf       	out	0x3e, r29	; 62
     b82:	0f be       	out	0x3f, r0	; 63
     b84:	cd bf       	out	0x3d, r28	; 61
     b86:	83 eb       	ldi	r24, 0xB3	; 179
     b88:	93 e0       	ldi	r25, 0x03	; 3
     b8a:	90 93 4f 05 	sts	0x054F, r25	; 0x80054f <__data_end+0x9>
     b8e:	80 93 4e 05 	sts	0x054E, r24	; 0x80054e <__data_end+0x8>
     b92:	10 92 51 05 	sts	0x0551, r1	; 0x800551 <__data_end+0xb>
     b96:	10 92 50 05 	sts	0x0550, r1	; 0x800550 <__data_end+0xa>
     b9a:	82 e0       	ldi	r24, 0x02	; 2
     b9c:	80 93 49 05 	sts	0x0549, r24	; 0x800549 <__data_end+0x3>
     ba0:	10 92 53 05 	sts	0x0553, r1	; 0x800553 <__data_end+0xd>
     ba4:	10 92 52 05 	sts	0x0552, r1	; 0x800552 <__data_end+0xc>
     ba8:	86 e4       	ldi	r24, 0x46	; 70
     baa:	95 e0       	ldi	r25, 0x05	; 5
     bac:	90 93 15 07 	sts	0x0715, r25	; 0x800715 <__iob+0x3>
     bb0:	80 93 14 07 	sts	0x0714, r24	; 0x800714 <__iob+0x2>
     bb4:	56 9a       	sbi	0x0a, 6	; 10
     bb6:	55 9a       	sbi	0x0a, 5	; 10
     bb8:	57 9a       	sbi	0x0a, 7	; 10
     bba:	81 e0       	ldi	r24, 0x01	; 1
     bbc:	90 e0       	ldi	r25, 0x00	; 0
     bbe:	0e 94 7b 03 	call	0x6f6	; 0x6f6 <_Z8setColori>
     bc2:	80 e8       	ldi	r24, 0x80	; 128
     bc4:	95 e2       	ldi	r25, 0x25	; 37
     bc6:	0e 94 91 03 	call	0x722	; 0x722 <_Z9init_uartj>
     bca:	2f ef       	ldi	r18, 0xFF	; 255
     bcc:	84 e3       	ldi	r24, 0x34	; 52
     bce:	9c e0       	ldi	r25, 0x0C	; 12
     bd0:	21 50       	subi	r18, 0x01	; 1
     bd2:	80 40       	sbci	r24, 0x00	; 0
     bd4:	90 40       	sbci	r25, 0x00	; 0
     bd6:	e1 f7       	brne	.-8      	; 0xbd0 <main+0x5e>
     bd8:	00 c0       	rjmp	.+0      	; 0xbda <main+0x68>
     bda:	00 00       	nop
     bdc:	0e 94 c5 04 	call	0x98a	; 0x98a <_Z4initv>
     be0:	2f ef       	ldi	r18, 0xFF	; 255
     be2:	84 e3       	ldi	r24, 0x34	; 52
     be4:	9c e0       	ldi	r25, 0x0C	; 12
     be6:	21 50       	subi	r18, 0x01	; 1
     be8:	80 40       	sbci	r24, 0x00	; 0
     bea:	90 40       	sbci	r25, 0x00	; 0
     bec:	e1 f7       	brne	.-8      	; 0xbe6 <main+0x74>
     bee:	00 c0       	rjmp	.+0      	; 0xbf0 <main+0x7e>
     bf0:	00 00       	nop
     bf2:	01 e0       	ldi	r16, 0x01	; 1
     bf4:	10 e0       	ldi	r17, 0x00	; 0
     bf6:	80 91 10 07 	lds	r24, 0x0710	; 0x800710 <errorCode>
     bfa:	90 91 11 07 	lds	r25, 0x0711	; 0x800711 <errorCode+0x1>
     bfe:	03 97       	sbiw	r24, 0x03	; 3
     c00:	02 97       	sbiw	r24, 0x02	; 2
     c02:	50 f1       	brcs	.+84     	; 0xc58 <main+0xe6>
     c04:	be 01       	movw	r22, r28
     c06:	6f 5f       	subi	r22, 0xFF	; 255
     c08:	7f 4f       	sbci	r23, 0xFF	; 255
     c0a:	80 91 9c 06 	lds	r24, 0x069C	; 0x80069c <tof+0x146>
     c0e:	90 91 9d 06 	lds	r25, 0x069D	; 0x80069d <tof+0x147>
     c12:	0e 94 0b 0e 	call	0x1c16	; 0x1c16 <VL53L0X_PerformSingleRangingMeasurement>
     c16:	89 8d       	ldd	r24, Y+25	; 0x19
     c18:	84 30       	cpi	r24, 0x04	; 4
     c1a:	a1 f0       	breq	.+40     	; 0xc44 <main+0xd2>
     c1c:	e9 84       	ldd	r14, Y+9	; 0x09
     c1e:	fa 84       	ldd	r15, Y+10	; 0x0a
     c20:	c7 01       	movw	r24, r14
     c22:	4f 97       	sbiw	r24, 0x1f	; 31
     c24:	80 3e       	cpi	r24, 0xE0	; 224
     c26:	9f 41       	sbci	r25, 0x1F	; 31
     c28:	68 f4       	brcc	.+26     	; 0xc44 <main+0xd2>
     c2a:	10 92 11 07 	sts	0x0711, r1	; 0x800711 <errorCode+0x1>
     c2e:	10 92 10 07 	sts	0x0710, r1	; 0x800710 <errorCode>
     c32:	60 e0       	ldi	r22, 0x00	; 0
     c34:	c7 01       	movw	r24, r14
     c36:	0e 94 9d 04 	call	0x93a	; 0x93a <_Z15sendMeasurementjh>
     c3a:	f0 92 0f 07 	sts	0x070F, r15	; 0x80070f <lastDistance+0x1>
     c3e:	e0 92 0e 07 	sts	0x070E, r14	; 0x80070e <lastDistance>
     c42:	0a c0       	rjmp	.+20     	; 0xc58 <main+0xe6>
     c44:	80 91 10 07 	lds	r24, 0x0710	; 0x800710 <errorCode>
     c48:	90 91 11 07 	lds	r25, 0x0711	; 0x800711 <errorCode+0x1>
     c4c:	89 2b       	or	r24, r25
     c4e:	21 f4       	brne	.+8      	; 0xc58 <main+0xe6>
     c50:	10 93 11 07 	sts	0x0711, r17	; 0x800711 <errorCode+0x1>
     c54:	00 93 10 07 	sts	0x0710, r16	; 0x800710 <errorCode>
     c58:	80 91 10 07 	lds	r24, 0x0710	; 0x800710 <errorCode>
     c5c:	90 91 11 07 	lds	r25, 0x0711	; 0x800711 <errorCode+0x1>
     c60:	20 91 00 01 	lds	r18, 0x0100	; 0x800100 <__data_start>
     c64:	30 91 01 01 	lds	r19, 0x0101	; 0x800101 <__data_start+0x1>
     c68:	82 17       	cp	r24, r18
     c6a:	93 07       	cpc	r25, r19
     c6c:	19 f0       	breq	.+6      	; 0xc74 <main+0x102>
     c6e:	82 30       	cpi	r24, 0x02	; 2
     c70:	91 05       	cpc	r25, r1
     c72:	20 f4       	brcc	.+8      	; 0xc7c <main+0x10a>
     c74:	20 91 54 05 	lds	r18, 0x0554	; 0x800554 <timesincelasterrorsend>
     c78:	2b 30       	cpi	r18, 0x0B	; 11
     c7a:	60 f0       	brcs	.+24     	; 0xc94 <main+0x122>
     c7c:	0e 94 7e 04 	call	0x8fc	; 0x8fc <_Z9sendErrorh>
     c80:	80 91 10 07 	lds	r24, 0x0710	; 0x800710 <errorCode>
     c84:	90 91 11 07 	lds	r25, 0x0711	; 0x800711 <errorCode+0x1>
     c88:	90 93 01 01 	sts	0x0101, r25	; 0x800101 <__data_start+0x1>
     c8c:	80 93 00 01 	sts	0x0100, r24	; 0x800100 <__data_start>
     c90:	10 92 54 05 	sts	0x0554, r1	; 0x800554 <timesincelasterrorsend>
     c94:	80 91 10 07 	lds	r24, 0x0710	; 0x800710 <errorCode>
     c98:	90 91 11 07 	lds	r25, 0x0711	; 0x800711 <errorCode+0x1>
     c9c:	00 97       	sbiw	r24, 0x00	; 0
     c9e:	19 f4       	brne	.+6      	; 0xca6 <main+0x134>
     ca0:	82 e0       	ldi	r24, 0x02	; 2
     ca2:	90 e0       	ldi	r25, 0x00	; 0
     ca4:	0e c0       	rjmp	.+28     	; 0xcc2 <main+0x150>
     ca6:	81 30       	cpi	r24, 0x01	; 1
     ca8:	91 05       	cpc	r25, r1
     caa:	19 f4       	brne	.+6      	; 0xcb2 <main+0x140>
     cac:	83 e0       	ldi	r24, 0x03	; 3
     cae:	90 e0       	ldi	r25, 0x00	; 0
     cb0:	08 c0       	rjmp	.+16     	; 0xcc2 <main+0x150>
     cb2:	02 97       	sbiw	r24, 0x02	; 2
     cb4:	21 f4       	brne	.+8      	; 0xcbe <main+0x14c>
     cb6:	80 91 55 05 	lds	r24, 0x0555	; 0x800555 <count>
     cba:	83 30       	cpi	r24, 0x03	; 3
     cbc:	28 f4       	brcc	.+10     	; 0xcc8 <main+0x156>
     cbe:	81 e0       	ldi	r24, 0x01	; 1
     cc0:	90 e0       	ldi	r25, 0x00	; 0
     cc2:	0e 94 7b 03 	call	0x6f6	; 0x6f6 <_Z8setColori>
     cc6:	02 c0       	rjmp	.+4      	; 0xccc <main+0x15a>
     cc8:	0e 94 85 00 	call	0x10a	; 0x10a <_Z8setColori.part.2>
     ccc:	80 91 55 05 	lds	r24, 0x0555	; 0x800555 <count>
     cd0:	8f 5f       	subi	r24, 0xFF	; 255
     cd2:	85 30       	cpi	r24, 0x05	; 5
     cd4:	18 f4       	brcc	.+6      	; 0xcdc <main+0x16a>
     cd6:	80 93 55 05 	sts	0x0555, r24	; 0x800555 <count>
     cda:	02 c0       	rjmp	.+4      	; 0xce0 <main+0x16e>
     cdc:	10 92 55 05 	sts	0x0555, r1	; 0x800555 <count>
     ce0:	80 91 54 05 	lds	r24, 0x0554	; 0x800554 <timesincelasterrorsend>
     ce4:	8f 5f       	subi	r24, 0xFF	; 255
     ce6:	80 93 54 05 	sts	0x0554, r24	; 0x800554 <timesincelasterrorsend>
     cea:	0e 94 31 05 	call	0xa62	; 0xa62 <_Z12checkMessagev>
     cee:	8f e3       	ldi	r24, 0x3F	; 63
     cf0:	9c e9       	ldi	r25, 0x9C	; 156
     cf2:	01 97       	sbiw	r24, 0x01	; 1
     cf4:	f1 f7       	brne	.-4      	; 0xcf2 <main+0x180>
     cf6:	00 c0       	rjmp	.+0      	; 0xcf8 <main+0x186>
     cf8:	00 00       	nop
     cfa:	7d cf       	rjmp	.-262    	; 0xbf6 <main+0x84>

00000cfc <_GLOBAL__sub_I__Z8i2c_initv>:
     cfc:	e6 e5       	ldi	r30, 0x56	; 86
     cfe:	f5 e0       	ldi	r31, 0x05	; 5
     d00:	84 eb       	ldi	r24, 0xB4	; 180
     d02:	91 e0       	ldi	r25, 0x01	; 1
     d04:	df 01       	movw	r26, r30
     d06:	9c 01       	movw	r18, r24
     d08:	1d 92       	st	X+, r1
     d0a:	21 50       	subi	r18, 0x01	; 1
     d0c:	30 40       	sbci	r19, 0x00	; 0
     d0e:	e1 f7       	brne	.-8      	; 0xd08 <_GLOBAL__sub_I__Z8i2c_initv+0xc>
     d10:	87 e5       	ldi	r24, 0x57	; 87
     d12:	95 e0       	ldi	r25, 0x05	; 5
     d14:	90 93 9d 06 	sts	0x069D, r25	; 0x80069d <tof+0x147>
     d18:	80 93 9c 06 	sts	0x069C, r24	; 0x80069c <tof+0x146>
     d1c:	8e e9       	ldi	r24, 0x9E	; 158
     d1e:	96 e0       	ldi	r25, 0x06	; 6
     d20:	90 93 a6 06 	sts	0x06A6, r25	; 0x8006a6 <tof+0x150>
     d24:	80 93 a5 06 	sts	0x06A5, r24	; 0x8006a5 <tof+0x14f>
     d28:	08 95       	ret

00000d2a <VL53L0X_GetFractionEnable>:
     d2a:	cf 93       	push	r28
     d2c:	df 93       	push	r29
     d2e:	eb 01       	movw	r28, r22
     d30:	ab 01       	movw	r20, r22
     d32:	69 e0       	ldi	r22, 0x09	; 9
     d34:	0e 94 0d 23 	call	0x461a	; 0x461a <VL53L0X_RdByte>
     d38:	81 11       	cpse	r24, r1
     d3a:	03 c0       	rjmp	.+6      	; 0xd42 <VL53L0X_GetFractionEnable+0x18>
     d3c:	98 81       	ld	r25, Y
     d3e:	91 70       	andi	r25, 0x01	; 1
     d40:	98 83       	st	Y, r25
     d42:	df 91       	pop	r29
     d44:	cf 91       	pop	r28
     d46:	08 95       	ret

00000d48 <VL53L0X_SetMeasurementTimingBudgetMicroSeconds>:
     d48:	0c 94 8d 1d 	jmp	0x3b1a	; 0x3b1a <VL53L0X_set_measurement_timing_budget_micro_seconds>

00000d4c <VL53L0X_GetVcselPulsePeriod>:
     d4c:	0c 94 67 1d 	jmp	0x3ace	; 0x3ace <VL53L0X_get_vcsel_pulse_period>

00000d50 <VL53L0X_SetSequenceStepEnable>:
     d50:	df 92       	push	r13
     d52:	ef 92       	push	r14
     d54:	ff 92       	push	r15
     d56:	0f 93       	push	r16
     d58:	1f 93       	push	r17
     d5a:	cf 93       	push	r28
     d5c:	df 93       	push	r29
     d5e:	1f 92       	push	r1
     d60:	cd b7       	in	r28, 0x3d	; 61
     d62:	de b7       	in	r29, 0x3e	; 62
     d64:	7c 01       	movw	r14, r24
     d66:	16 2f       	mov	r17, r22
     d68:	d4 2e       	mov	r13, r20
     d6a:	19 82       	std	Y+1, r1	; 0x01
     d6c:	ae 01       	movw	r20, r28
     d6e:	4f 5f       	subi	r20, 0xFF	; 255
     d70:	5f 4f       	sbci	r21, 0xFF	; 255
     d72:	61 e0       	ldi	r22, 0x01	; 1
     d74:	0e 94 0d 23 	call	0x461a	; 0x461a <VL53L0X_RdByte>
     d78:	08 2f       	mov	r16, r24
     d7a:	81 11       	cpse	r24, r1
     d7c:	50 c0       	rjmp	.+160    	; 0xe1e <VL53L0X_SetSequenceStepEnable+0xce>
     d7e:	89 81       	ldd	r24, Y+1	; 0x01
     d80:	91 e0       	ldi	r25, 0x01	; 1
     d82:	d9 12       	cpse	r13, r25
     d84:	1a c0       	rjmp	.+52     	; 0xdba <VL53L0X_SetSequenceStepEnable+0x6a>
     d86:	12 30       	cpi	r17, 0x02	; 2
     d88:	91 f0       	breq	.+36     	; 0xdae <VL53L0X_SetSequenceStepEnable+0x5e>
     d8a:	38 f4       	brcc	.+14     	; 0xd9a <VL53L0X_SetSequenceStepEnable+0x4a>
     d8c:	11 23       	and	r17, r17
     d8e:	61 f0       	breq	.+24     	; 0xda8 <VL53L0X_SetSequenceStepEnable+0x58>
     d90:	11 30       	cpi	r17, 0x01	; 1
     d92:	69 f5       	brne	.+90     	; 0xdee <VL53L0X_SetSequenceStepEnable+0x9e>
     d94:	18 2f       	mov	r17, r24
     d96:	18 62       	ori	r17, 0x28	; 40
     d98:	2c c0       	rjmp	.+88     	; 0xdf2 <VL53L0X_SetSequenceStepEnable+0xa2>
     d9a:	13 30       	cpi	r17, 0x03	; 3
     d9c:	59 f0       	breq	.+22     	; 0xdb4 <VL53L0X_SetSequenceStepEnable+0x64>
     d9e:	14 30       	cpi	r17, 0x04	; 4
     da0:	31 f5       	brne	.+76     	; 0xdee <VL53L0X_SetSequenceStepEnable+0x9e>
     da2:	18 2f       	mov	r17, r24
     da4:	10 68       	ori	r17, 0x80	; 128
     da6:	25 c0       	rjmp	.+74     	; 0xdf2 <VL53L0X_SetSequenceStepEnable+0xa2>
     da8:	18 2f       	mov	r17, r24
     daa:	10 61       	ori	r17, 0x10	; 16
     dac:	22 c0       	rjmp	.+68     	; 0xdf2 <VL53L0X_SetSequenceStepEnable+0xa2>
     dae:	18 2f       	mov	r17, r24
     db0:	14 60       	ori	r17, 0x04	; 4
     db2:	1f c0       	rjmp	.+62     	; 0xdf2 <VL53L0X_SetSequenceStepEnable+0xa2>
     db4:	18 2f       	mov	r17, r24
     db6:	10 64       	ori	r17, 0x40	; 64
     db8:	1c c0       	rjmp	.+56     	; 0xdf2 <VL53L0X_SetSequenceStepEnable+0xa2>
     dba:	12 30       	cpi	r17, 0x02	; 2
     dbc:	91 f0       	breq	.+36     	; 0xde2 <VL53L0X_SetSequenceStepEnable+0x92>
     dbe:	38 f4       	brcc	.+14     	; 0xdce <VL53L0X_SetSequenceStepEnable+0x7e>
     dc0:	11 23       	and	r17, r17
     dc2:	61 f0       	breq	.+24     	; 0xddc <VL53L0X_SetSequenceStepEnable+0x8c>
     dc4:	11 30       	cpi	r17, 0x01	; 1
     dc6:	99 f4       	brne	.+38     	; 0xdee <VL53L0X_SetSequenceStepEnable+0x9e>
     dc8:	18 2f       	mov	r17, r24
     dca:	17 7d       	andi	r17, 0xD7	; 215
     dcc:	12 c0       	rjmp	.+36     	; 0xdf2 <VL53L0X_SetSequenceStepEnable+0xa2>
     dce:	13 30       	cpi	r17, 0x03	; 3
     dd0:	59 f0       	breq	.+22     	; 0xde8 <VL53L0X_SetSequenceStepEnable+0x98>
     dd2:	14 30       	cpi	r17, 0x04	; 4
     dd4:	61 f4       	brne	.+24     	; 0xdee <VL53L0X_SetSequenceStepEnable+0x9e>
     dd6:	18 2f       	mov	r17, r24
     dd8:	1f 77       	andi	r17, 0x7F	; 127
     dda:	0b c0       	rjmp	.+22     	; 0xdf2 <VL53L0X_SetSequenceStepEnable+0xa2>
     ddc:	18 2f       	mov	r17, r24
     dde:	1f 7e       	andi	r17, 0xEF	; 239
     de0:	08 c0       	rjmp	.+16     	; 0xdf2 <VL53L0X_SetSequenceStepEnable+0xa2>
     de2:	18 2f       	mov	r17, r24
     de4:	1b 7f       	andi	r17, 0xFB	; 251
     de6:	05 c0       	rjmp	.+10     	; 0xdf2 <VL53L0X_SetSequenceStepEnable+0xa2>
     de8:	18 2f       	mov	r17, r24
     dea:	1f 7b       	andi	r17, 0xBF	; 191
     dec:	02 c0       	rjmp	.+4      	; 0xdf2 <VL53L0X_SetSequenceStepEnable+0xa2>
     dee:	0c ef       	ldi	r16, 0xFC	; 252
     df0:	16 c0       	rjmp	.+44     	; 0xe1e <VL53L0X_SetSequenceStepEnable+0xce>
     df2:	81 17       	cp	r24, r17
     df4:	a1 f0       	breq	.+40     	; 0xe1e <VL53L0X_SetSequenceStepEnable+0xce>
     df6:	41 2f       	mov	r20, r17
     df8:	61 e0       	ldi	r22, 0x01	; 1
     dfa:	c7 01       	movw	r24, r14
     dfc:	0e 94 c8 22 	call	0x4590	; 0x4590 <VL53L0X_WrByte>
     e00:	08 2f       	mov	r16, r24
     e02:	81 11       	cpse	r24, r1
     e04:	0c c0       	rjmp	.+24     	; 0xe1e <VL53L0X_SetSequenceStepEnable+0xce>
     e06:	f7 01       	movw	r30, r14
     e08:	e3 5e       	subi	r30, 0xE3	; 227
     e0a:	fe 4f       	sbci	r31, 0xFE	; 254
     e0c:	10 83       	st	Z, r17
     e0e:	f7 01       	movw	r30, r14
     e10:	42 89       	ldd	r20, Z+18	; 0x12
     e12:	53 89       	ldd	r21, Z+19	; 0x13
     e14:	64 89       	ldd	r22, Z+20	; 0x14
     e16:	75 89       	ldd	r23, Z+21	; 0x15
     e18:	c7 01       	movw	r24, r14
     e1a:	0e 94 a4 06 	call	0xd48	; 0xd48 <VL53L0X_SetMeasurementTimingBudgetMicroSeconds>
     e1e:	80 2f       	mov	r24, r16
     e20:	0f 90       	pop	r0
     e22:	df 91       	pop	r29
     e24:	cf 91       	pop	r28
     e26:	1f 91       	pop	r17
     e28:	0f 91       	pop	r16
     e2a:	ff 90       	pop	r15
     e2c:	ef 90       	pop	r14
     e2e:	df 90       	pop	r13
     e30:	08 95       	ret

00000e32 <VL53L0X_GetSequenceStepEnables>:
     e32:	0f 93       	push	r16
     e34:	1f 93       	push	r17
     e36:	cf 93       	push	r28
     e38:	df 93       	push	r29
     e3a:	1f 92       	push	r1
     e3c:	cd b7       	in	r28, 0x3d	; 61
     e3e:	de b7       	in	r29, 0x3e	; 62
     e40:	8b 01       	movw	r16, r22
     e42:	19 82       	std	Y+1, r1	; 0x01
     e44:	ae 01       	movw	r20, r28
     e46:	4f 5f       	subi	r20, 0xFF	; 255
     e48:	5f 4f       	sbci	r21, 0xFF	; 255
     e4a:	61 e0       	ldi	r22, 0x01	; 1
     e4c:	0e 94 0d 23 	call	0x461a	; 0x461a <VL53L0X_RdByte>
     e50:	81 11       	cpse	r24, r1
     e52:	16 c0       	rjmp	.+44     	; 0xe80 <VL53L0X_GetSequenceStepEnables+0x4e>
     e54:	99 81       	ldd	r25, Y+1	; 0x01
     e56:	94 fb       	bst	r25, 4
     e58:	22 27       	eor	r18, r18
     e5a:	20 f9       	bld	r18, 0
     e5c:	f8 01       	movw	r30, r16
     e5e:	20 83       	st	Z, r18
     e60:	93 fb       	bst	r25, 3
     e62:	22 27       	eor	r18, r18
     e64:	20 f9       	bld	r18, 0
     e66:	22 83       	std	Z+2, r18	; 0x02
     e68:	92 fb       	bst	r25, 2
     e6a:	22 27       	eor	r18, r18
     e6c:	20 f9       	bld	r18, 0
     e6e:	21 83       	std	Z+1, r18	; 0x01
     e70:	96 fb       	bst	r25, 6
     e72:	22 27       	eor	r18, r18
     e74:	20 f9       	bld	r18, 0
     e76:	23 83       	std	Z+3, r18	; 0x03
     e78:	99 1f       	adc	r25, r25
     e7a:	99 27       	eor	r25, r25
     e7c:	99 1f       	adc	r25, r25
     e7e:	94 83       	std	Z+4, r25	; 0x04
     e80:	0f 90       	pop	r0
     e82:	df 91       	pop	r29
     e84:	cf 91       	pop	r28
     e86:	1f 91       	pop	r17
     e88:	0f 91       	pop	r16
     e8a:	08 95       	ret

00000e8c <VL53L0X_GetSequenceStepTimeout>:
     e8c:	3f 92       	push	r3
     e8e:	4f 92       	push	r4
     e90:	5f 92       	push	r5
     e92:	6f 92       	push	r6
     e94:	7f 92       	push	r7
     e96:	8f 92       	push	r8
     e98:	9f 92       	push	r9
     e9a:	af 92       	push	r10
     e9c:	bf 92       	push	r11
     e9e:	cf 92       	push	r12
     ea0:	df 92       	push	r13
     ea2:	ef 92       	push	r14
     ea4:	ff 92       	push	r15
     ea6:	0f 93       	push	r16
     ea8:	1f 93       	push	r17
     eaa:	cf 93       	push	r28
     eac:	df 93       	push	r29
     eae:	00 d0       	rcall	.+0      	; 0xeb0 <VL53L0X_GetSequenceStepTimeout+0x24>
     eb0:	00 d0       	rcall	.+0      	; 0xeb2 <VL53L0X_GetSequenceStepTimeout+0x26>
     eb2:	cd b7       	in	r28, 0x3d	; 61
     eb4:	de b7       	in	r29, 0x3e	; 62
     eb6:	8a 01       	movw	r16, r20
     eb8:	ae 01       	movw	r20, r28
     eba:	4f 5f       	subi	r20, 0xFF	; 255
     ebc:	5f 4f       	sbci	r21, 0xFF	; 255
     ebe:	0e 94 b6 1b 	call	0x376c	; 0x376c <get_sequence_step_timeout>
     ec2:	38 2e       	mov	r3, r24
     ec4:	81 11       	cpse	r24, r1
     ec6:	36 c0       	rjmp	.+108    	; 0xf34 <VL53L0X_GetSequenceStepTimeout+0xa8>
     ec8:	49 80       	ldd	r4, Y+1	; 0x01
     eca:	5a 80       	ldd	r5, Y+2	; 0x02
     ecc:	6b 80       	ldd	r6, Y+3	; 0x03
     ece:	7c 80       	ldd	r7, Y+4	; 0x04
     ed0:	88 ee       	ldi	r24, 0xE8	; 232
     ed2:	88 2e       	mov	r8, r24
     ed4:	83 e0       	ldi	r24, 0x03	; 3
     ed6:	98 2e       	mov	r9, r24
     ed8:	a1 2c       	mov	r10, r1
     eda:	b1 2c       	mov	r11, r1
     edc:	c3 01       	movw	r24, r6
     ede:	b2 01       	movw	r22, r4
     ee0:	a5 01       	movw	r20, r10
     ee2:	94 01       	movw	r18, r8
     ee4:	0e 94 6f 24 	call	0x48de	; 0x48de <__udivmodsi4>
     ee8:	69 01       	movw	r12, r18
     eea:	7a 01       	movw	r14, r20
     eec:	a8 ee       	ldi	r26, 0xE8	; 232
     eee:	b3 e0       	ldi	r27, 0x03	; 3
     ef0:	0e 94 c5 24 	call	0x498a	; 0x498a <__muluhisi3>
     ef4:	a3 01       	movw	r20, r6
     ef6:	92 01       	movw	r18, r4
     ef8:	26 1b       	sub	r18, r22
     efa:	37 0b       	sbc	r19, r23
     efc:	48 0b       	sbc	r20, r24
     efe:	59 0b       	sbc	r21, r25
     f00:	af ef       	ldi	r26, 0xFF	; 255
     f02:	bf ef       	ldi	r27, 0xFF	; 255
     f04:	0e 94 c5 24 	call	0x498a	; 0x498a <__muluhisi3>
     f08:	6c 50       	subi	r22, 0x0C	; 12
     f0a:	7e 4f       	sbci	r23, 0xFE	; 254
     f0c:	8f 4f       	sbci	r24, 0xFF	; 255
     f0e:	9f 4f       	sbci	r25, 0xFF	; 255
     f10:	a5 01       	movw	r20, r10
     f12:	94 01       	movw	r18, r8
     f14:	0e 94 6f 24 	call	0x48de	; 0x48de <__udivmodsi4>
     f18:	76 01       	movw	r14, r12
     f1a:	dd 24       	eor	r13, r13
     f1c:	cc 24       	eor	r12, r12
     f1e:	da 01       	movw	r26, r20
     f20:	c9 01       	movw	r24, r18
     f22:	8c 0d       	add	r24, r12
     f24:	9d 1d       	adc	r25, r13
     f26:	ae 1d       	adc	r26, r14
     f28:	bf 1d       	adc	r27, r15
     f2a:	f8 01       	movw	r30, r16
     f2c:	80 83       	st	Z, r24
     f2e:	91 83       	std	Z+1, r25	; 0x01
     f30:	a2 83       	std	Z+2, r26	; 0x02
     f32:	b3 83       	std	Z+3, r27	; 0x03
     f34:	83 2d       	mov	r24, r3
     f36:	0f 90       	pop	r0
     f38:	0f 90       	pop	r0
     f3a:	0f 90       	pop	r0
     f3c:	0f 90       	pop	r0
     f3e:	df 91       	pop	r29
     f40:	cf 91       	pop	r28
     f42:	1f 91       	pop	r17
     f44:	0f 91       	pop	r16
     f46:	ff 90       	pop	r15
     f48:	ef 90       	pop	r14
     f4a:	df 90       	pop	r13
     f4c:	cf 90       	pop	r12
     f4e:	bf 90       	pop	r11
     f50:	af 90       	pop	r10
     f52:	9f 90       	pop	r9
     f54:	8f 90       	pop	r8
     f56:	7f 90       	pop	r7
     f58:	6f 90       	pop	r6
     f5a:	5f 90       	pop	r5
     f5c:	4f 90       	pop	r4
     f5e:	3f 90       	pop	r3
     f60:	08 95       	ret

00000f62 <VL53L0X_GetInterMeasurementPeriodMilliSeconds>:
     f62:	cf 92       	push	r12
     f64:	df 92       	push	r13
     f66:	ef 92       	push	r14
     f68:	ff 92       	push	r15
     f6a:	1f 93       	push	r17
     f6c:	cf 93       	push	r28
     f6e:	df 93       	push	r29
     f70:	00 d0       	rcall	.+0      	; 0xf72 <VL53L0X_GetInterMeasurementPeriodMilliSeconds+0x10>
     f72:	00 d0       	rcall	.+0      	; 0xf74 <VL53L0X_GetInterMeasurementPeriodMilliSeconds+0x12>
     f74:	00 d0       	rcall	.+0      	; 0xf76 <VL53L0X_GetInterMeasurementPeriodMilliSeconds+0x14>
     f76:	cd b7       	in	r28, 0x3d	; 61
     f78:	de b7       	in	r29, 0x3e	; 62
     f7a:	7c 01       	movw	r14, r24
     f7c:	6b 01       	movw	r12, r22
     f7e:	ae 01       	movw	r20, r28
     f80:	4b 5f       	subi	r20, 0xFB	; 251
     f82:	5f 4f       	sbci	r21, 0xFF	; 255
     f84:	68 ef       	ldi	r22, 0xF8	; 248
     f86:	0e 94 19 23 	call	0x4632	; 0x4632 <VL53L0X_RdWord>
     f8a:	18 2f       	mov	r17, r24
     f8c:	81 11       	cpse	r24, r1
     f8e:	26 c0       	rjmp	.+76     	; 0xfdc <VL53L0X_GetInterMeasurementPeriodMilliSeconds+0x7a>
     f90:	ae 01       	movw	r20, r28
     f92:	4f 5f       	subi	r20, 0xFF	; 255
     f94:	5f 4f       	sbci	r21, 0xFF	; 255
     f96:	64 e0       	ldi	r22, 0x04	; 4
     f98:	c7 01       	movw	r24, r14
     f9a:	0e 94 25 23 	call	0x464a	; 0x464a <VL53L0X_RdDWord>
     f9e:	18 2f       	mov	r17, r24
     fa0:	81 11       	cpse	r24, r1
     fa2:	1c c0       	rjmp	.+56     	; 0xfdc <VL53L0X_GetInterMeasurementPeriodMilliSeconds+0x7a>
     fa4:	2d 81       	ldd	r18, Y+5	; 0x05
     fa6:	3e 81       	ldd	r19, Y+6	; 0x06
     fa8:	21 15       	cp	r18, r1
     faa:	31 05       	cpc	r19, r1
     fac:	69 f0       	breq	.+26     	; 0xfc8 <VL53L0X_GetInterMeasurementPeriodMilliSeconds+0x66>
     fae:	40 e0       	ldi	r20, 0x00	; 0
     fb0:	50 e0       	ldi	r21, 0x00	; 0
     fb2:	69 81       	ldd	r22, Y+1	; 0x01
     fb4:	7a 81       	ldd	r23, Y+2	; 0x02
     fb6:	8b 81       	ldd	r24, Y+3	; 0x03
     fb8:	9c 81       	ldd	r25, Y+4	; 0x04
     fba:	0e 94 6f 24 	call	0x48de	; 0x48de <__udivmodsi4>
     fbe:	f6 01       	movw	r30, r12
     fc0:	20 83       	st	Z, r18
     fc2:	31 83       	std	Z+1, r19	; 0x01
     fc4:	42 83       	std	Z+2, r20	; 0x02
     fc6:	53 83       	std	Z+3, r21	; 0x03
     fc8:	f6 01       	movw	r30, r12
     fca:	80 81       	ld	r24, Z
     fcc:	91 81       	ldd	r25, Z+1	; 0x01
     fce:	a2 81       	ldd	r26, Z+2	; 0x02
     fd0:	b3 81       	ldd	r27, Z+3	; 0x03
     fd2:	f7 01       	movw	r30, r14
     fd4:	86 8b       	std	Z+22, r24	; 0x16
     fd6:	97 8b       	std	Z+23, r25	; 0x17
     fd8:	a0 8f       	std	Z+24, r26	; 0x18
     fda:	b1 8f       	std	Z+25, r27	; 0x19
     fdc:	81 2f       	mov	r24, r17
     fde:	26 96       	adiw	r28, 0x06	; 6
     fe0:	0f b6       	in	r0, 0x3f	; 63
     fe2:	f8 94       	cli
     fe4:	de bf       	out	0x3e, r29	; 62
     fe6:	0f be       	out	0x3f, r0	; 63
     fe8:	cd bf       	out	0x3d, r28	; 61
     fea:	df 91       	pop	r29
     fec:	cf 91       	pop	r28
     fee:	1f 91       	pop	r17
     ff0:	ff 90       	pop	r15
     ff2:	ef 90       	pop	r14
     ff4:	df 90       	pop	r13
     ff6:	cf 90       	pop	r12
     ff8:	08 95       	ret

00000ffa <VL53L0X_GetXTalkCompensationEnable>:
     ffa:	fc 01       	movw	r30, r24
     ffc:	82 8d       	ldd	r24, Z+26	; 0x1a
     ffe:	fb 01       	movw	r30, r22
    1000:	80 83       	st	Z, r24
    1002:	80 e0       	ldi	r24, 0x00	; 0
    1004:	08 95       	ret

00001006 <VL53L0X_GetXTalkCompensationRateMegaCps>:
    1006:	ef 92       	push	r14
    1008:	ff 92       	push	r15
    100a:	0f 93       	push	r16
    100c:	1f 93       	push	r17
    100e:	cf 93       	push	r28
    1010:	df 93       	push	r29
    1012:	00 d0       	rcall	.+0      	; 0x1014 <VL53L0X_GetXTalkCompensationRateMegaCps+0xe>
    1014:	cd b7       	in	r28, 0x3d	; 61
    1016:	de b7       	in	r29, 0x3e	; 62
    1018:	7c 01       	movw	r14, r24
    101a:	8b 01       	movw	r16, r22
    101c:	ae 01       	movw	r20, r28
    101e:	4f 5f       	subi	r20, 0xFF	; 255
    1020:	5f 4f       	sbci	r21, 0xFF	; 255
    1022:	60 e2       	ldi	r22, 0x20	; 32
    1024:	0e 94 19 23 	call	0x4632	; 0x4632 <VL53L0X_RdWord>
    1028:	81 11       	cpse	r24, r1
    102a:	25 c0       	rjmp	.+74     	; 0x1076 <VL53L0X_GetXTalkCompensationRateMegaCps+0x70>
    102c:	49 81       	ldd	r20, Y+1	; 0x01
    102e:	5a 81       	ldd	r21, Y+2	; 0x02
    1030:	41 15       	cp	r20, r1
    1032:	51 05       	cpc	r21, r1
    1034:	69 f4       	brne	.+26     	; 0x1050 <VL53L0X_GetXTalkCompensationRateMegaCps+0x4a>
    1036:	f7 01       	movw	r30, r14
    1038:	45 8d       	ldd	r20, Z+29	; 0x1d
    103a:	56 8d       	ldd	r21, Z+30	; 0x1e
    103c:	67 8d       	ldd	r22, Z+31	; 0x1f
    103e:	70 a1       	ldd	r23, Z+32	; 0x20
    1040:	f8 01       	movw	r30, r16
    1042:	40 83       	st	Z, r20
    1044:	51 83       	std	Z+1, r21	; 0x01
    1046:	62 83       	std	Z+2, r22	; 0x02
    1048:	73 83       	std	Z+3, r23	; 0x03
    104a:	f7 01       	movw	r30, r14
    104c:	12 8e       	std	Z+26, r1	; 0x1a
    104e:	13 c0       	rjmp	.+38     	; 0x1076 <VL53L0X_GetXTalkCompensationRateMegaCps+0x70>
    1050:	93 e0       	ldi	r25, 0x03	; 3
    1052:	44 0f       	add	r20, r20
    1054:	55 1f       	adc	r21, r21
    1056:	9a 95       	dec	r25
    1058:	e1 f7       	brne	.-8      	; 0x1052 <VL53L0X_GetXTalkCompensationRateMegaCps+0x4c>
    105a:	60 e0       	ldi	r22, 0x00	; 0
    105c:	70 e0       	ldi	r23, 0x00	; 0
    105e:	f8 01       	movw	r30, r16
    1060:	40 83       	st	Z, r20
    1062:	51 83       	std	Z+1, r21	; 0x01
    1064:	62 83       	std	Z+2, r22	; 0x02
    1066:	73 83       	std	Z+3, r23	; 0x03
    1068:	f7 01       	movw	r30, r14
    106a:	45 8f       	std	Z+29, r20	; 0x1d
    106c:	56 8f       	std	Z+30, r21	; 0x1e
    106e:	67 8f       	std	Z+31, r22	; 0x1f
    1070:	70 a3       	std	Z+32, r23	; 0x20
    1072:	91 e0       	ldi	r25, 0x01	; 1
    1074:	92 8f       	std	Z+26, r25	; 0x1a
    1076:	0f 90       	pop	r0
    1078:	0f 90       	pop	r0
    107a:	df 91       	pop	r29
    107c:	cf 91       	pop	r28
    107e:	1f 91       	pop	r17
    1080:	0f 91       	pop	r16
    1082:	ff 90       	pop	r15
    1084:	ef 90       	pop	r14
    1086:	08 95       	ret

00001088 <VL53L0X_SetLimitCheckEnable>:
    1088:	ff 92       	push	r15
    108a:	0f 93       	push	r16
    108c:	1f 93       	push	r17
    108e:	cf 93       	push	r28
    1090:	df 93       	push	r29
    1092:	8c 01       	movw	r16, r24
    1094:	fb 01       	movw	r30, r22
    1096:	f4 2e       	mov	r15, r20
    1098:	66 30       	cpi	r22, 0x06	; 6
    109a:	71 05       	cpc	r23, r1
    109c:	90 f4       	brcc	.+36     	; 0x10c2 <VL53L0X_SetLimitCheckEnable+0x3a>
    109e:	44 23       	and	r20, r20
    10a0:	91 f0       	breq	.+36     	; 0x10c6 <VL53L0X_SetLimitCheckEnable+0x3e>
    10a2:	db 01       	movw	r26, r22
    10a4:	aa 0f       	add	r26, r26
    10a6:	bb 1f       	adc	r27, r27
    10a8:	aa 0f       	add	r26, r26
    10aa:	bb 1f       	adc	r27, r27
    10ac:	a0 0f       	add	r26, r16
    10ae:	b1 1f       	adc	r27, r17
    10b0:	d1 96       	adiw	r26, 0x31	; 49
    10b2:	4d 91       	ld	r20, X+
    10b4:	5d 91       	ld	r21, X+
    10b6:	6d 91       	ld	r22, X+
    10b8:	7c 91       	ld	r23, X
    10ba:	d4 97       	sbiw	r26, 0x34	; 52
    10bc:	20 e0       	ldi	r18, 0x00	; 0
    10be:	91 e0       	ldi	r25, 0x01	; 1
    10c0:	07 c0       	rjmp	.+14     	; 0x10d0 <VL53L0X_SetLimitCheckEnable+0x48>
    10c2:	8c ef       	ldi	r24, 0xFC	; 252
    10c4:	41 c0       	rjmp	.+130    	; 0x1148 <VL53L0X_SetLimitCheckEnable+0xc0>
    10c6:	21 e0       	ldi	r18, 0x01	; 1
    10c8:	90 e0       	ldi	r25, 0x00	; 0
    10ca:	40 e0       	ldi	r20, 0x00	; 0
    10cc:	50 e0       	ldi	r21, 0x00	; 0
    10ce:	ba 01       	movw	r22, r20
    10d0:	ef 01       	movw	r28, r30
    10d2:	e3 30       	cpi	r30, 0x03	; 3
    10d4:	f1 05       	cpc	r31, r1
    10d6:	19 f4       	brne	.+6      	; 0x10de <VL53L0X_SetLimitCheckEnable+0x56>
    10d8:	f8 01       	movw	r30, r16
    10da:	90 a7       	std	Z+40, r25	; 0x28
    10dc:	2c c0       	rjmp	.+88     	; 0x1136 <VL53L0X_SetLimitCheckEnable+0xae>
    10de:	e4 30       	cpi	r30, 0x04	; 4
    10e0:	f1 05       	cpc	r31, r1
    10e2:	78 f4       	brcc	.+30     	; 0x1102 <VL53L0X_SetLimitCheckEnable+0x7a>
    10e4:	e1 30       	cpi	r30, 0x01	; 1
    10e6:	f1 05       	cpc	r31, r1
    10e8:	c1 f4       	brne	.+48     	; 0x111a <VL53L0X_SetLimitCheckEnable+0x92>
    10ea:	89 e0       	ldi	r24, 0x09	; 9
    10ec:	76 95       	lsr	r23
    10ee:	67 95       	ror	r22
    10f0:	57 95       	ror	r21
    10f2:	47 95       	ror	r20
    10f4:	8a 95       	dec	r24
    10f6:	d1 f7       	brne	.-12     	; 0x10ec <VL53L0X_SetLimitCheckEnable+0x64>
    10f8:	64 e4       	ldi	r22, 0x44	; 68
    10fa:	c8 01       	movw	r24, r16
    10fc:	0e 94 d4 22 	call	0x45a8	; 0x45a8 <VL53L0X_WrWord>
    1100:	09 c0       	rjmp	.+18     	; 0x1114 <VL53L0X_SetLimitCheckEnable+0x8c>
    1102:	e4 30       	cpi	r30, 0x04	; 4
    1104:	f1 05       	cpc	r31, r1
    1106:	89 f4       	brne	.+34     	; 0x112a <VL53L0X_SetLimitCheckEnable+0xa2>
    1108:	22 0f       	add	r18, r18
    110a:	4e ef       	ldi	r20, 0xFE	; 254
    110c:	60 e6       	ldi	r22, 0x60	; 96
    110e:	c8 01       	movw	r24, r16
    1110:	0e 94 e0 22 	call	0x45c0	; 0x45c0 <VL53L0X_UpdateByte>
    1114:	81 11       	cpse	r24, r1
    1116:	18 c0       	rjmp	.+48     	; 0x1148 <VL53L0X_SetLimitCheckEnable+0xc0>
    1118:	0e c0       	rjmp	.+28     	; 0x1136 <VL53L0X_SetLimitCheckEnable+0xae>
    111a:	32 97       	sbiw	r30, 0x02	; 2
    111c:	19 f0       	breq	.+6      	; 0x1124 <VL53L0X_SetLimitCheckEnable+0x9c>
    111e:	f8 01       	movw	r30, r16
    1120:	95 a3       	std	Z+37, r25	; 0x25
    1122:	09 c0       	rjmp	.+18     	; 0x1136 <VL53L0X_SetLimitCheckEnable+0xae>
    1124:	f8 01       	movw	r30, r16
    1126:	97 a3       	std	Z+39, r25	; 0x27
    1128:	06 c0       	rjmp	.+12     	; 0x1136 <VL53L0X_SetLimitCheckEnable+0xae>
    112a:	35 97       	sbiw	r30, 0x05	; 5
    112c:	c1 f7       	brne	.-16     	; 0x111e <VL53L0X_SetLimitCheckEnable+0x96>
    112e:	22 95       	swap	r18
    1130:	20 7f       	andi	r18, 0xF0	; 240
    1132:	4f ee       	ldi	r20, 0xEF	; 239
    1134:	eb cf       	rjmp	.-42     	; 0x110c <VL53L0X_SetLimitCheckEnable+0x84>
    1136:	c0 0f       	add	r28, r16
    1138:	d1 1f       	adc	r29, r17
    113a:	f1 10       	cpse	r15, r1
    113c:	02 c0       	rjmp	.+4      	; 0x1142 <VL53L0X_SetLimitCheckEnable+0xba>
    113e:	1d a2       	std	Y+37, r1	; 0x25
    1140:	02 c0       	rjmp	.+4      	; 0x1146 <VL53L0X_SetLimitCheckEnable+0xbe>
    1142:	81 e0       	ldi	r24, 0x01	; 1
    1144:	8d a3       	std	Y+37, r24	; 0x25
    1146:	80 e0       	ldi	r24, 0x00	; 0
    1148:	df 91       	pop	r29
    114a:	cf 91       	pop	r28
    114c:	1f 91       	pop	r17
    114e:	0f 91       	pop	r16
    1150:	ff 90       	pop	r15
    1152:	08 95       	ret

00001154 <VL53L0X_GetLimitCheckEnable>:
    1154:	66 30       	cpi	r22, 0x06	; 6
    1156:	71 05       	cpc	r23, r1
    1158:	20 f0       	brcs	.+8      	; 0x1162 <VL53L0X_GetLimitCheckEnable+0xe>
    115a:	fa 01       	movw	r30, r20
    115c:	10 82       	st	Z, r1
    115e:	8c ef       	ldi	r24, 0xFC	; 252
    1160:	08 95       	ret
    1162:	fc 01       	movw	r30, r24
    1164:	e6 0f       	add	r30, r22
    1166:	f7 1f       	adc	r31, r23
    1168:	85 a1       	ldd	r24, Z+37	; 0x25
    116a:	fa 01       	movw	r30, r20
    116c:	80 83       	st	Z, r24
    116e:	80 e0       	ldi	r24, 0x00	; 0
    1170:	08 95       	ret

00001172 <VL53L0X_SetLimitCheckValue>:
    1172:	cf 92       	push	r12
    1174:	df 92       	push	r13
    1176:	ef 92       	push	r14
    1178:	ff 92       	push	r15
    117a:	0f 93       	push	r16
    117c:	1f 93       	push	r17
    117e:	cf 93       	push	r28
    1180:	df 93       	push	r29
    1182:	8c 01       	movw	r16, r24
    1184:	eb 01       	movw	r28, r22
    1186:	69 01       	movw	r12, r18
    1188:	7a 01       	movw	r14, r20
    118a:	fc 01       	movw	r30, r24
    118c:	e6 0f       	add	r30, r22
    118e:	f7 1f       	adc	r31, r23
    1190:	85 a1       	ldd	r24, Z+37	; 0x25
    1192:	81 11       	cpse	r24, r1
    1194:	0c c0       	rjmp	.+24     	; 0x11ae <VL53L0X_SetLimitCheckValue+0x3c>
    1196:	cc 0f       	add	r28, r28
    1198:	dd 1f       	adc	r29, r29
    119a:	cc 0f       	add	r28, r28
    119c:	dd 1f       	adc	r29, r29
    119e:	c0 0f       	add	r28, r16
    11a0:	d1 1f       	adc	r29, r17
    11a2:	c9 aa       	std	Y+49, r12	; 0x31
    11a4:	da aa       	std	Y+50, r13	; 0x32
    11a6:	eb aa       	std	Y+51, r14	; 0x33
    11a8:	fc aa       	std	Y+52, r15	; 0x34
    11aa:	80 e0       	ldi	r24, 0x00	; 0
    11ac:	3f c0       	rjmp	.+126    	; 0x122c <VL53L0X_SetLimitCheckValue+0xba>
    11ae:	62 30       	cpi	r22, 0x02	; 2
    11b0:	71 05       	cpc	r23, r1
    11b2:	41 f1       	breq	.+80     	; 0x1204 <VL53L0X_SetLimitCheckValue+0x92>
    11b4:	80 f4       	brcc	.+32     	; 0x11d6 <VL53L0X_SetLimitCheckValue+0x64>
    11b6:	20 97       	sbiw	r28, 0x00	; 0
    11b8:	f9 f0       	breq	.+62     	; 0x11f8 <VL53L0X_SetLimitCheckValue+0x86>
    11ba:	61 30       	cpi	r22, 0x01	; 1
    11bc:	71 05       	cpc	r23, r1
    11be:	a9 f5       	brne	.+106    	; 0x122a <VL53L0X_SetLimitCheckValue+0xb8>
    11c0:	ba 01       	movw	r22, r20
    11c2:	a9 01       	movw	r20, r18
    11c4:	99 e0       	ldi	r25, 0x09	; 9
    11c6:	76 95       	lsr	r23
    11c8:	67 95       	ror	r22
    11ca:	57 95       	ror	r21
    11cc:	47 95       	ror	r20
    11ce:	9a 95       	dec	r25
    11d0:	d1 f7       	brne	.-12     	; 0x11c6 <VL53L0X_SetLimitCheckValue+0x54>
    11d2:	64 e4       	ldi	r22, 0x44	; 68
    11d4:	24 c0       	rjmp	.+72     	; 0x121e <VL53L0X_SetLimitCheckValue+0xac>
    11d6:	63 30       	cpi	r22, 0x03	; 3
    11d8:	71 05       	cpc	r23, r1
    11da:	d1 f0       	breq	.+52     	; 0x1210 <VL53L0X_SetLimitCheckValue+0x9e>
    11dc:	66 30       	cpi	r22, 0x06	; 6
    11de:	71 05       	cpc	r23, r1
    11e0:	20 f5       	brcc	.+72     	; 0x122a <VL53L0X_SetLimitCheckValue+0xb8>
    11e2:	ba 01       	movw	r22, r20
    11e4:	a9 01       	movw	r20, r18
    11e6:	89 e0       	ldi	r24, 0x09	; 9
    11e8:	76 95       	lsr	r23
    11ea:	67 95       	ror	r22
    11ec:	57 95       	ror	r21
    11ee:	47 95       	ror	r20
    11f0:	8a 95       	dec	r24
    11f2:	d1 f7       	brne	.-12     	; 0x11e8 <VL53L0X_SetLimitCheckValue+0x76>
    11f4:	64 e6       	ldi	r22, 0x64	; 100
    11f6:	13 c0       	rjmp	.+38     	; 0x121e <VL53L0X_SetLimitCheckValue+0xac>
    11f8:	f8 01       	movw	r30, r16
    11fa:	21 ab       	std	Z+49, r18	; 0x31
    11fc:	32 ab       	std	Z+50, r19	; 0x32
    11fe:	43 ab       	std	Z+51, r20	; 0x33
    1200:	54 ab       	std	Z+52, r21	; 0x34
    1202:	c9 cf       	rjmp	.-110    	; 0x1196 <VL53L0X_SetLimitCheckValue+0x24>
    1204:	f8 01       	movw	r30, r16
    1206:	21 af       	std	Z+57, r18	; 0x39
    1208:	32 af       	std	Z+58, r19	; 0x3a
    120a:	43 af       	std	Z+59, r20	; 0x3b
    120c:	54 af       	std	Z+60, r21	; 0x3c
    120e:	c3 cf       	rjmp	.-122    	; 0x1196 <VL53L0X_SetLimitCheckValue+0x24>
    1210:	f8 01       	movw	r30, r16
    1212:	fd 96       	adiw	r30, 0x3d	; 61
    1214:	20 83       	st	Z, r18
    1216:	31 83       	std	Z+1, r19	; 0x01
    1218:	42 83       	std	Z+2, r20	; 0x02
    121a:	53 83       	std	Z+3, r21	; 0x03
    121c:	bc cf       	rjmp	.-136    	; 0x1196 <VL53L0X_SetLimitCheckValue+0x24>
    121e:	c8 01       	movw	r24, r16
    1220:	0e 94 d4 22 	call	0x45a8	; 0x45a8 <VL53L0X_WrWord>
    1224:	81 11       	cpse	r24, r1
    1226:	02 c0       	rjmp	.+4      	; 0x122c <VL53L0X_SetLimitCheckValue+0xba>
    1228:	b6 cf       	rjmp	.-148    	; 0x1196 <VL53L0X_SetLimitCheckValue+0x24>
    122a:	8c ef       	ldi	r24, 0xFC	; 252
    122c:	df 91       	pop	r29
    122e:	cf 91       	pop	r28
    1230:	1f 91       	pop	r17
    1232:	0f 91       	pop	r16
    1234:	ff 90       	pop	r15
    1236:	ef 90       	pop	r14
    1238:	df 90       	pop	r13
    123a:	cf 90       	pop	r12
    123c:	08 95       	ret

0000123e <VL53L0X_GetLimitCheckValue>:
    123e:	ef 92       	push	r14
    1240:	ff 92       	push	r15
    1242:	0f 93       	push	r16
    1244:	1f 93       	push	r17
    1246:	cf 93       	push	r28
    1248:	df 93       	push	r29
    124a:	00 d0       	rcall	.+0      	; 0x124c <VL53L0X_GetLimitCheckValue+0xe>
    124c:	cd b7       	in	r28, 0x3d	; 61
    124e:	de b7       	in	r29, 0x3e	; 62
    1250:	8c 01       	movw	r16, r24
    1252:	7a 01       	movw	r14, r20
    1254:	62 30       	cpi	r22, 0x02	; 2
    1256:	71 05       	cpc	r23, r1
    1258:	a1 f1       	breq	.+104    	; 0x12c2 <VL53L0X_GetLimitCheckValue+0x84>
    125a:	38 f4       	brcc	.+14     	; 0x126a <VL53L0X_GetLimitCheckValue+0x2c>
    125c:	61 15       	cp	r22, r1
    125e:	71 05       	cpc	r23, r1
    1260:	59 f0       	breq	.+22     	; 0x1278 <VL53L0X_GetLimitCheckValue+0x3a>
    1262:	61 30       	cpi	r22, 0x01	; 1
    1264:	71 05       	cpc	r23, r1
    1266:	71 f0       	breq	.+28     	; 0x1284 <VL53L0X_GetLimitCheckValue+0x46>
    1268:	56 c0       	rjmp	.+172    	; 0x1316 <VL53L0X_GetLimitCheckValue+0xd8>
    126a:	63 30       	cpi	r22, 0x03	; 3
    126c:	71 05       	cpc	r23, r1
    126e:	79 f1       	breq	.+94     	; 0x12ce <VL53L0X_GetLimitCheckValue+0x90>
    1270:	66 30       	cpi	r22, 0x06	; 6
    1272:	71 05       	cpc	r23, r1
    1274:	98 f1       	brcs	.+102    	; 0x12dc <VL53L0X_GetLimitCheckValue+0x9e>
    1276:	4f c0       	rjmp	.+158    	; 0x1316 <VL53L0X_GetLimitCheckValue+0xd8>
    1278:	fc 01       	movw	r30, r24
    127a:	81 a9       	ldd	r24, Z+49	; 0x31
    127c:	92 a9       	ldd	r25, Z+50	; 0x32
    127e:	a3 a9       	ldd	r26, Z+51	; 0x33
    1280:	b4 a9       	ldd	r27, Z+52	; 0x34
    1282:	4b c0       	rjmp	.+150    	; 0x131a <VL53L0X_GetLimitCheckValue+0xdc>
    1284:	ae 01       	movw	r20, r28
    1286:	4f 5f       	subi	r20, 0xFF	; 255
    1288:	5f 4f       	sbci	r21, 0xFF	; 255
    128a:	64 e4       	ldi	r22, 0x44	; 68
    128c:	0e 94 19 23 	call	0x4632	; 0x4632 <VL53L0X_RdWord>
    1290:	81 11       	cpse	r24, r1
    1292:	49 c0       	rjmp	.+146    	; 0x1326 <VL53L0X_GetLimitCheckValue+0xe8>
    1294:	99 81       	ldd	r25, Y+1	; 0x01
    1296:	20 e0       	ldi	r18, 0x00	; 0
    1298:	30 e0       	ldi	r19, 0x00	; 0
    129a:	39 2f       	mov	r19, r25
    129c:	33 0f       	add	r19, r19
    129e:	a9 01       	movw	r20, r18
    12a0:	60 e0       	ldi	r22, 0x00	; 0
    12a2:	70 e0       	ldi	r23, 0x00	; 0
    12a4:	23 2b       	or	r18, r19
    12a6:	51 f5       	brne	.+84     	; 0x12fc <VL53L0X_GetLimitCheckValue+0xbe>
    12a8:	f8 01       	movw	r30, r16
    12aa:	45 a9       	ldd	r20, Z+53	; 0x35
    12ac:	56 a9       	ldd	r21, Z+54	; 0x36
    12ae:	67 a9       	ldd	r22, Z+55	; 0x37
    12b0:	70 ad       	ldd	r23, Z+56	; 0x38
    12b2:	f7 01       	movw	r30, r14
    12b4:	40 83       	st	Z, r20
    12b6:	51 83       	std	Z+1, r21	; 0x01
    12b8:	62 83       	std	Z+2, r22	; 0x02
    12ba:	73 83       	std	Z+3, r23	; 0x03
    12bc:	f8 01       	movw	r30, r16
    12be:	16 a2       	std	Z+38, r1	; 0x26
    12c0:	32 c0       	rjmp	.+100    	; 0x1326 <VL53L0X_GetLimitCheckValue+0xe8>
    12c2:	fc 01       	movw	r30, r24
    12c4:	81 ad       	ldd	r24, Z+57	; 0x39
    12c6:	92 ad       	ldd	r25, Z+58	; 0x3a
    12c8:	a3 ad       	ldd	r26, Z+59	; 0x3b
    12ca:	b4 ad       	ldd	r27, Z+60	; 0x3c
    12cc:	26 c0       	rjmp	.+76     	; 0x131a <VL53L0X_GetLimitCheckValue+0xdc>
    12ce:	fc 01       	movw	r30, r24
    12d0:	fd 96       	adiw	r30, 0x3d	; 61
    12d2:	80 81       	ld	r24, Z
    12d4:	91 81       	ldd	r25, Z+1	; 0x01
    12d6:	a2 81       	ldd	r26, Z+2	; 0x02
    12d8:	b3 81       	ldd	r27, Z+3	; 0x03
    12da:	1f c0       	rjmp	.+62     	; 0x131a <VL53L0X_GetLimitCheckValue+0xdc>
    12dc:	ae 01       	movw	r20, r28
    12de:	4f 5f       	subi	r20, 0xFF	; 255
    12e0:	5f 4f       	sbci	r21, 0xFF	; 255
    12e2:	64 e6       	ldi	r22, 0x64	; 100
    12e4:	0e 94 19 23 	call	0x4632	; 0x4632 <VL53L0X_RdWord>
    12e8:	81 11       	cpse	r24, r1
    12ea:	1d c0       	rjmp	.+58     	; 0x1326 <VL53L0X_GetLimitCheckValue+0xe8>
    12ec:	29 81       	ldd	r18, Y+1	; 0x01
    12ee:	80 e0       	ldi	r24, 0x00	; 0
    12f0:	90 e0       	ldi	r25, 0x00	; 0
    12f2:	92 2f       	mov	r25, r18
    12f4:	99 0f       	add	r25, r25
    12f6:	a0 e0       	ldi	r26, 0x00	; 0
    12f8:	b0 e0       	ldi	r27, 0x00	; 0
    12fa:	0f c0       	rjmp	.+30     	; 0x131a <VL53L0X_GetLimitCheckValue+0xdc>
    12fc:	f7 01       	movw	r30, r14
    12fe:	40 83       	st	Z, r20
    1300:	51 83       	std	Z+1, r21	; 0x01
    1302:	62 83       	std	Z+2, r22	; 0x02
    1304:	73 83       	std	Z+3, r23	; 0x03
    1306:	f8 01       	movw	r30, r16
    1308:	45 ab       	std	Z+53, r20	; 0x35
    130a:	56 ab       	std	Z+54, r21	; 0x36
    130c:	67 ab       	std	Z+55, r22	; 0x37
    130e:	70 af       	std	Z+56, r23	; 0x38
    1310:	91 e0       	ldi	r25, 0x01	; 1
    1312:	96 a3       	std	Z+38, r25	; 0x26
    1314:	08 c0       	rjmp	.+16     	; 0x1326 <VL53L0X_GetLimitCheckValue+0xe8>
    1316:	8c ef       	ldi	r24, 0xFC	; 252
    1318:	06 c0       	rjmp	.+12     	; 0x1326 <VL53L0X_GetLimitCheckValue+0xe8>
    131a:	f7 01       	movw	r30, r14
    131c:	80 83       	st	Z, r24
    131e:	91 83       	std	Z+1, r25	; 0x01
    1320:	a2 83       	std	Z+2, r26	; 0x02
    1322:	b3 83       	std	Z+3, r27	; 0x03
    1324:	80 e0       	ldi	r24, 0x00	; 0
    1326:	0f 90       	pop	r0
    1328:	0f 90       	pop	r0
    132a:	df 91       	pop	r29
    132c:	cf 91       	pop	r28
    132e:	1f 91       	pop	r17
    1330:	0f 91       	pop	r16
    1332:	ff 90       	pop	r15
    1334:	ef 90       	pop	r14
    1336:	08 95       	ret

00001338 <VL53L0X_GetWrapAroundCheckEnable>:
    1338:	ef 92       	push	r14
    133a:	ff 92       	push	r15
    133c:	0f 93       	push	r16
    133e:	1f 93       	push	r17
    1340:	cf 93       	push	r28
    1342:	df 93       	push	r29
    1344:	1f 92       	push	r1
    1346:	cd b7       	in	r28, 0x3d	; 61
    1348:	de b7       	in	r29, 0x3e	; 62
    134a:	8c 01       	movw	r16, r24
    134c:	7b 01       	movw	r14, r22
    134e:	ae 01       	movw	r20, r28
    1350:	4f 5f       	subi	r20, 0xFF	; 255
    1352:	5f 4f       	sbci	r21, 0xFF	; 255
    1354:	61 e0       	ldi	r22, 0x01	; 1
    1356:	0e 94 0d 23 	call	0x461a	; 0x461a <VL53L0X_RdByte>
    135a:	81 11       	cpse	r24, r1
    135c:	13 c0       	rjmp	.+38     	; 0x1384 <VL53L0X_GetWrapAroundCheckEnable+0x4c>
    135e:	99 81       	ldd	r25, Y+1	; 0x01
    1360:	f8 01       	movw	r30, r16
    1362:	e3 5e       	subi	r30, 0xE3	; 227
    1364:	fe 4f       	sbci	r31, 0xFE	; 254
    1366:	90 83       	st	Z, r25
    1368:	97 ff       	sbrs	r25, 7
    136a:	04 c0       	rjmp	.+8      	; 0x1374 <VL53L0X_GetWrapAroundCheckEnable+0x3c>
    136c:	91 e0       	ldi	r25, 0x01	; 1
    136e:	f7 01       	movw	r30, r14
    1370:	90 83       	st	Z, r25
    1372:	02 c0       	rjmp	.+4      	; 0x1378 <VL53L0X_GetWrapAroundCheckEnable+0x40>
    1374:	f7 01       	movw	r30, r14
    1376:	10 82       	st	Z, r1
    1378:	f7 01       	movw	r30, r14
    137a:	90 81       	ld	r25, Z
    137c:	f8 01       	movw	r30, r16
    137e:	e7 5b       	subi	r30, 0xB7	; 183
    1380:	ff 4f       	sbci	r31, 0xFF	; 255
    1382:	90 83       	st	Z, r25
    1384:	0f 90       	pop	r0
    1386:	df 91       	pop	r29
    1388:	cf 91       	pop	r28
    138a:	1f 91       	pop	r17
    138c:	0f 91       	pop	r16
    138e:	ff 90       	pop	r15
    1390:	ef 90       	pop	r14
    1392:	08 95       	ret

00001394 <VL53L0X_GetDeviceParameters>:
    1394:	8f 92       	push	r8
    1396:	9f 92       	push	r9
    1398:	af 92       	push	r10
    139a:	bf 92       	push	r11
    139c:	cf 92       	push	r12
    139e:	df 92       	push	r13
    13a0:	ef 92       	push	r14
    13a2:	ff 92       	push	r15
    13a4:	0f 93       	push	r16
    13a6:	1f 93       	push	r17
    13a8:	cf 93       	push	r28
    13aa:	df 93       	push	r29
    13ac:	8c 01       	movw	r16, r24
    13ae:	eb 01       	movw	r28, r22
    13b0:	fc 01       	movw	r30, r24
    13b2:	80 89       	ldd	r24, Z+16	; 0x10
    13b4:	88 83       	st	Y, r24
    13b6:	6a 5f       	subi	r22, 0xFA	; 250
    13b8:	7f 4f       	sbci	r23, 0xFF	; 255
    13ba:	c8 01       	movw	r24, r16
    13bc:	0e 94 b1 07 	call	0xf62	; 0xf62 <VL53L0X_GetInterMeasurementPeriodMilliSeconds>
    13c0:	81 11       	cpse	r24, r1
    13c2:	50 c0       	rjmp	.+160    	; 0x1464 <VL53L0X_GetDeviceParameters+0xd0>
    13c4:	1a 86       	std	Y+10, r1	; 0x0a
    13c6:	be 01       	movw	r22, r28
    13c8:	63 5f       	subi	r22, 0xF3	; 243
    13ca:	7f 4f       	sbci	r23, 0xFF	; 255
    13cc:	c8 01       	movw	r24, r16
    13ce:	0e 94 03 08 	call	0x1006	; 0x1006 <VL53L0X_GetXTalkCompensationRateMegaCps>
    13d2:	81 11       	cpse	r24, r1
    13d4:	47 c0       	rjmp	.+142    	; 0x1464 <VL53L0X_GetDeviceParameters+0xd0>
    13d6:	be 01       	movw	r22, r28
    13d8:	6f 5e       	subi	r22, 0xEF	; 239
    13da:	7f 4f       	sbci	r23, 0xFF	; 255
    13dc:	c8 01       	movw	r24, r16
    13de:	0e 94 65 10 	call	0x20ca	; 0x20ca <VL53L0X_get_offset_calibration_data_micro_meter>
    13e2:	81 11       	cpse	r24, r1
    13e4:	3f c0       	rjmp	.+126    	; 0x1464 <VL53L0X_GetDeviceParameters+0xd0>
    13e6:	6e 01       	movw	r12, r28
    13e8:	f1 e2       	ldi	r31, 0x21	; 33
    13ea:	cf 0e       	add	r12, r31
    13ec:	d1 1c       	adc	r13, r1
    13ee:	48 01       	movw	r8, r16
    13f0:	85 e2       	ldi	r24, 0x25	; 37
    13f2:	88 0e       	add	r8, r24
    13f4:	91 1c       	adc	r9, r1
    13f6:	5e 01       	movw	r10, r28
    13f8:	e5 e1       	ldi	r30, 0x15	; 21
    13fa:	ae 0e       	add	r10, r30
    13fc:	b1 1c       	adc	r11, r1
    13fe:	e1 2c       	mov	r14, r1
    1400:	f1 2c       	mov	r15, r1
    1402:	a6 01       	movw	r20, r12
    1404:	b7 01       	movw	r22, r14
    1406:	c8 01       	movw	r24, r16
    1408:	0e 94 1f 09 	call	0x123e	; 0x123e <VL53L0X_GetLimitCheckValue>
    140c:	81 11       	cpse	r24, r1
    140e:	2a c0       	rjmp	.+84     	; 0x1464 <VL53L0X_GetDeviceParameters+0xd0>
    1410:	f4 01       	movw	r30, r8
    1412:	81 91       	ld	r24, Z+
    1414:	4f 01       	movw	r8, r30
    1416:	f5 01       	movw	r30, r10
    1418:	81 93       	st	Z+, r24
    141a:	5f 01       	movw	r10, r30
    141c:	ff ef       	ldi	r31, 0xFF	; 255
    141e:	ef 1a       	sub	r14, r31
    1420:	ff 0a       	sbc	r15, r31
    1422:	84 e0       	ldi	r24, 0x04	; 4
    1424:	c8 0e       	add	r12, r24
    1426:	d1 1c       	adc	r13, r1
    1428:	e6 e0       	ldi	r30, 0x06	; 6
    142a:	ee 16       	cp	r14, r30
    142c:	f1 04       	cpc	r15, r1
    142e:	49 f7       	brne	.-46     	; 0x1402 <VL53L0X_GetDeviceParameters+0x6e>
    1430:	be 01       	movw	r22, r28
    1432:	67 5c       	subi	r22, 0xC7	; 199
    1434:	7f 4f       	sbci	r23, 0xFF	; 255
    1436:	c8 01       	movw	r24, r16
    1438:	0e 94 9c 09 	call	0x1338	; 0x1338 <VL53L0X_GetWrapAroundCheckEnable>
    143c:	81 11       	cpse	r24, r1
    143e:	12 c0       	rjmp	.+36     	; 0x1464 <VL53L0X_GetDeviceParameters+0xd0>
    1440:	be 01       	movw	r22, r28
    1442:	6e 5f       	subi	r22, 0xFE	; 254
    1444:	7f 4f       	sbci	r23, 0xFF	; 255
    1446:	c8 01       	movw	r24, r16
    1448:	df 91       	pop	r29
    144a:	cf 91       	pop	r28
    144c:	1f 91       	pop	r17
    144e:	0f 91       	pop	r16
    1450:	ff 90       	pop	r15
    1452:	ef 90       	pop	r14
    1454:	df 90       	pop	r13
    1456:	cf 90       	pop	r12
    1458:	bf 90       	pop	r11
    145a:	af 90       	pop	r10
    145c:	9f 90       	pop	r9
    145e:	8f 90       	pop	r8
    1460:	0c 94 58 1e 	jmp	0x3cb0	; 0x3cb0 <VL53L0X_get_measurement_timing_budget_micro_seconds>
    1464:	df 91       	pop	r29
    1466:	cf 91       	pop	r28
    1468:	1f 91       	pop	r17
    146a:	0f 91       	pop	r16
    146c:	ff 90       	pop	r15
    146e:	ef 90       	pop	r14
    1470:	df 90       	pop	r13
    1472:	cf 90       	pop	r12
    1474:	bf 90       	pop	r11
    1476:	af 90       	pop	r10
    1478:	9f 90       	pop	r9
    147a:	8f 90       	pop	r8
    147c:	08 95       	ret

0000147e <VL53L0X_DataInit>:
    147e:	ef 92       	push	r14
    1480:	ff 92       	push	r15
    1482:	0f 93       	push	r16
    1484:	1f 93       	push	r17
    1486:	cf 93       	push	r28
    1488:	df 93       	push	r29
    148a:	cd b7       	in	r28, 0x3d	; 61
    148c:	de b7       	in	r29, 0x3e	; 62
    148e:	ec 97       	sbiw	r28, 0x3c	; 60
    1490:	0f b6       	in	r0, 0x3f	; 63
    1492:	f8 94       	cli
    1494:	de bf       	out	0x3e, r29	; 62
    1496:	0f be       	out	0x3f, r0	; 63
    1498:	cd bf       	out	0x3d, r28	; 61
    149a:	8c 01       	movw	r16, r24
    149c:	21 e0       	ldi	r18, 0x01	; 1
    149e:	4e ef       	ldi	r20, 0xFE	; 254
    14a0:	69 e8       	ldi	r22, 0x89	; 137
    14a2:	0e 94 e0 22 	call	0x45c0	; 0x45c0 <VL53L0X_UpdateByte>
    14a6:	81 11       	cpse	r24, r1
    14a8:	05 c0       	rjmp	.+10     	; 0x14b4 <VL53L0X_DataInit+0x36>
    14aa:	40 e0       	ldi	r20, 0x00	; 0
    14ac:	68 e8       	ldi	r22, 0x88	; 136
    14ae:	c8 01       	movw	r24, r16
    14b0:	0e 94 c8 22 	call	0x4590	; 0x4590 <VL53L0X_WrByte>
    14b4:	ae 01       	movw	r20, r28
    14b6:	45 5c       	subi	r20, 0xC5	; 197
    14b8:	5f 4f       	sbci	r21, 0xFF	; 255
    14ba:	60 ec       	ldi	r22, 0xC0	; 192
    14bc:	c8 01       	movw	r24, r16
    14be:	0e 94 0d 23 	call	0x461a	; 0x461a <VL53L0X_RdByte>
    14c2:	f8 01       	movw	r30, r16
    14c4:	e1 52       	subi	r30, 0x21	; 33
    14c6:	ff 4f       	sbci	r31, 0xFF	; 255
    14c8:	10 82       	st	Z, r1
    14ca:	88 ee       	ldi	r24, 0xE8	; 232
    14cc:	93 e0       	ldi	r25, 0x03	; 3
    14ce:	e6 5a       	subi	r30, 0xA6	; 166
    14d0:	ff 4f       	sbci	r31, 0xFF	; 255
    14d2:	91 83       	std	Z+1, r25	; 0x01
    14d4:	80 83       	st	Z, r24
    14d6:	80 e9       	ldi	r24, 0x90	; 144
    14d8:	91 e0       	ldi	r25, 0x01	; 1
    14da:	32 96       	adiw	r30, 0x02	; 2
    14dc:	91 83       	std	Z+1, r25	; 0x01
    14de:	80 83       	st	Z, r24
    14e0:	85 e8       	ldi	r24, 0x85	; 133
    14e2:	9b e6       	ldi	r25, 0x6B	; 107
    14e4:	a1 e0       	ldi	r26, 0x01	; 1
    14e6:	b0 e0       	ldi	r27, 0x00	; 0
    14e8:	32 96       	adiw	r30, 0x02	; 2
    14ea:	80 83       	st	Z, r24
    14ec:	91 83       	std	Z+1, r25	; 0x01
    14ee:	a2 83       	std	Z+2, r26	; 0x02
    14f0:	b3 83       	std	Z+3, r27	; 0x03
    14f2:	84 ea       	ldi	r24, 0xA4	; 164
    14f4:	90 e7       	ldi	r25, 0x70	; 112
    14f6:	a9 e0       	ldi	r26, 0x09	; 9
    14f8:	b0 e0       	ldi	r27, 0x00	; 0
    14fa:	e5 57       	subi	r30, 0x75	; 117
    14fc:	f1 09       	sbc	r31, r1
    14fe:	80 83       	st	Z, r24
    1500:	91 83       	std	Z+1, r25	; 0x01
    1502:	a2 83       	std	Z+2, r26	; 0x02
    1504:	b3 83       	std	Z+3, r27	; 0x03
    1506:	f8 01       	movw	r30, r16
    1508:	15 8e       	std	Z+29, r1	; 0x1d
    150a:	16 8e       	std	Z+30, r1	; 0x1e
    150c:	17 8e       	std	Z+31, r1	; 0x1f
    150e:	10 a2       	std	Z+32, r1	; 0x20
    1510:	be 01       	movw	r22, r28
    1512:	6f 5f       	subi	r22, 0xFF	; 255
    1514:	7f 4f       	sbci	r23, 0xFF	; 255
    1516:	c8 01       	movw	r24, r16
    1518:	0e 94 ca 09 	call	0x1394	; 0x1394 <VL53L0X_GetDeviceParameters>
    151c:	f8 2e       	mov	r15, r24
    151e:	81 11       	cpse	r24, r1
    1520:	0b c0       	rjmp	.+22     	; 0x1538 <VL53L0X_DataInit+0xba>
    1522:	19 82       	std	Y+1, r1	; 0x01
    1524:	1a 82       	std	Y+2, r1	; 0x02
    1526:	8a e3       	ldi	r24, 0x3A	; 58
    1528:	fe 01       	movw	r30, r28
    152a:	31 96       	adiw	r30, 0x01	; 1
    152c:	d8 01       	movw	r26, r16
    152e:	50 96       	adiw	r26, 0x10	; 16
    1530:	01 90       	ld	r0, Z+
    1532:	0d 92       	st	X+, r0
    1534:	8a 95       	dec	r24
    1536:	e1 f7       	brne	.-8      	; 0x1530 <VL53L0X_DataInit+0xb2>
    1538:	84 e6       	ldi	r24, 0x64	; 100
    153a:	90 e0       	ldi	r25, 0x00	; 0
    153c:	f8 01       	movw	r30, r16
    153e:	ef 5d       	subi	r30, 0xDF	; 223
    1540:	fe 4f       	sbci	r31, 0xFE	; 254
    1542:	91 83       	std	Z+1, r25	; 0x01
    1544:	80 83       	st	Z, r24
    1546:	84 e8       	ldi	r24, 0x84	; 132
    1548:	93 e0       	ldi	r25, 0x03	; 3
    154a:	32 96       	adiw	r30, 0x02	; 2
    154c:	91 83       	std	Z+1, r25	; 0x01
    154e:	80 83       	st	Z, r24
    1550:	84 ef       	ldi	r24, 0xF4	; 244
    1552:	91 e0       	ldi	r25, 0x01	; 1
    1554:	32 96       	adiw	r30, 0x02	; 2
    1556:	91 83       	std	Z+1, r25	; 0x01
    1558:	80 83       	st	Z, r24
    155a:	80 e0       	ldi	r24, 0x00	; 0
    155c:	9a e0       	ldi	r25, 0x0A	; 10
    155e:	33 96       	adiw	r30, 0x03	; 3
    1560:	91 83       	std	Z+1, r25	; 0x01
    1562:	80 83       	st	Z, r24
    1564:	81 e0       	ldi	r24, 0x01	; 1
    1566:	70 96       	adiw	r30, 0x10	; 16
    1568:	80 83       	st	Z, r24
    156a:	41 e0       	ldi	r20, 0x01	; 1
    156c:	60 e8       	ldi	r22, 0x80	; 128
    156e:	c8 01       	movw	r24, r16
    1570:	0e 94 c8 22 	call	0x4590	; 0x4590 <VL53L0X_WrByte>
    1574:	e8 2e       	mov	r14, r24
    1576:	41 e0       	ldi	r20, 0x01	; 1
    1578:	6f ef       	ldi	r22, 0xFF	; 255
    157a:	c8 01       	movw	r24, r16
    157c:	0e 94 c8 22 	call	0x4590	; 0x4590 <VL53L0X_WrByte>
    1580:	8e 29       	or	r24, r14
    1582:	f8 2a       	or	r15, r24
    1584:	40 e0       	ldi	r20, 0x00	; 0
    1586:	60 e0       	ldi	r22, 0x00	; 0
    1588:	c8 01       	movw	r24, r16
    158a:	0e 94 c8 22 	call	0x4590	; 0x4590 <VL53L0X_WrByte>
    158e:	f8 2a       	or	r15, r24
    1590:	ae 01       	movw	r20, r28
    1592:	44 5c       	subi	r20, 0xC4	; 196
    1594:	5f 4f       	sbci	r21, 0xFF	; 255
    1596:	61 e9       	ldi	r22, 0x91	; 145
    1598:	c8 01       	movw	r24, r16
    159a:	0e 94 0d 23 	call	0x461a	; 0x461a <VL53L0X_RdByte>
    159e:	f8 2a       	or	r15, r24
    15a0:	8c ad       	ldd	r24, Y+60	; 0x3c
    15a2:	f8 01       	movw	r30, r16
    15a4:	e9 5d       	subi	r30, 0xD9	; 217
    15a6:	fe 4f       	sbci	r31, 0xFE	; 254
    15a8:	80 83       	st	Z, r24
    15aa:	41 e0       	ldi	r20, 0x01	; 1
    15ac:	60 e0       	ldi	r22, 0x00	; 0
    15ae:	c8 01       	movw	r24, r16
    15b0:	0e 94 c8 22 	call	0x4590	; 0x4590 <VL53L0X_WrByte>
    15b4:	f8 2a       	or	r15, r24
    15b6:	40 e0       	ldi	r20, 0x00	; 0
    15b8:	6f ef       	ldi	r22, 0xFF	; 255
    15ba:	c8 01       	movw	r24, r16
    15bc:	0e 94 c8 22 	call	0x4590	; 0x4590 <VL53L0X_WrByte>
    15c0:	f8 2a       	or	r15, r24
    15c2:	40 e0       	ldi	r20, 0x00	; 0
    15c4:	60 e8       	ldi	r22, 0x80	; 128
    15c6:	c8 01       	movw	r24, r16
    15c8:	0e 94 c8 22 	call	0x4590	; 0x4590 <VL53L0X_WrByte>
    15cc:	8f 29       	or	r24, r15
    15ce:	e1 2c       	mov	r14, r1
    15d0:	f1 2c       	mov	r15, r1
    15d2:	81 11       	cpse	r24, r1
    15d4:	5f c0       	rjmp	.+190    	; 0x1694 <VL53L0X_DataInit+0x216>
    15d6:	41 e0       	ldi	r20, 0x01	; 1
    15d8:	b7 01       	movw	r22, r14
    15da:	c8 01       	movw	r24, r16
    15dc:	0e 94 44 08 	call	0x1088	; 0x1088 <VL53L0X_SetLimitCheckEnable>
    15e0:	ff ef       	ldi	r31, 0xFF	; 255
    15e2:	ef 1a       	sub	r14, r31
    15e4:	ff 0a       	sbc	r15, r31
    15e6:	96 e0       	ldi	r25, 0x06	; 6
    15e8:	e9 16       	cp	r14, r25
    15ea:	f1 04       	cpc	r15, r1
    15ec:	91 f7       	brne	.-28     	; 0x15d2 <VL53L0X_DataInit+0x154>
    15ee:	81 11       	cpse	r24, r1
    15f0:	51 c0       	rjmp	.+162    	; 0x1694 <VL53L0X_DataInit+0x216>
    15f2:	f8 01       	movw	r30, r16
    15f4:	17 a2       	std	Z+39, r1	; 0x27
    15f6:	10 a6       	std	Z+40, r1	; 0x28
    15f8:	40 e0       	ldi	r20, 0x00	; 0
    15fa:	64 e0       	ldi	r22, 0x04	; 4
    15fc:	70 e0       	ldi	r23, 0x00	; 0
    15fe:	c8 01       	movw	r24, r16
    1600:	0e 94 44 08 	call	0x1088	; 0x1088 <VL53L0X_SetLimitCheckEnable>
    1604:	81 11       	cpse	r24, r1
    1606:	46 c0       	rjmp	.+140    	; 0x1694 <VL53L0X_DataInit+0x216>
    1608:	40 e0       	ldi	r20, 0x00	; 0
    160a:	65 e0       	ldi	r22, 0x05	; 5
    160c:	70 e0       	ldi	r23, 0x00	; 0
    160e:	c8 01       	movw	r24, r16
    1610:	0e 94 44 08 	call	0x1088	; 0x1088 <VL53L0X_SetLimitCheckEnable>
    1614:	81 11       	cpse	r24, r1
    1616:	3e c0       	rjmp	.+124    	; 0x1694 <VL53L0X_DataInit+0x216>
    1618:	20 e0       	ldi	r18, 0x00	; 0
    161a:	30 e0       	ldi	r19, 0x00	; 0
    161c:	42 e1       	ldi	r20, 0x12	; 18
    161e:	50 e0       	ldi	r21, 0x00	; 0
    1620:	60 e0       	ldi	r22, 0x00	; 0
    1622:	70 e0       	ldi	r23, 0x00	; 0
    1624:	c8 01       	movw	r24, r16
    1626:	0e 94 b9 08 	call	0x1172	; 0x1172 <VL53L0X_SetLimitCheckValue>
    162a:	81 11       	cpse	r24, r1
    162c:	33 c0       	rjmp	.+102    	; 0x1694 <VL53L0X_DataInit+0x216>
    162e:	20 e0       	ldi	r18, 0x00	; 0
    1630:	30 e4       	ldi	r19, 0x40	; 64
    1632:	40 e0       	ldi	r20, 0x00	; 0
    1634:	50 e0       	ldi	r21, 0x00	; 0
    1636:	61 e0       	ldi	r22, 0x01	; 1
    1638:	70 e0       	ldi	r23, 0x00	; 0
    163a:	c8 01       	movw	r24, r16
    163c:	0e 94 b9 08 	call	0x1172	; 0x1172 <VL53L0X_SetLimitCheckValue>
    1640:	81 11       	cpse	r24, r1
    1642:	28 c0       	rjmp	.+80     	; 0x1694 <VL53L0X_DataInit+0x216>
    1644:	20 e0       	ldi	r18, 0x00	; 0
    1646:	30 e0       	ldi	r19, 0x00	; 0
    1648:	43 e2       	ldi	r20, 0x23	; 35
    164a:	50 e0       	ldi	r21, 0x00	; 0
    164c:	62 e0       	ldi	r22, 0x02	; 2
    164e:	70 e0       	ldi	r23, 0x00	; 0
    1650:	c8 01       	movw	r24, r16
    1652:	0e 94 b9 08 	call	0x1172	; 0x1172 <VL53L0X_SetLimitCheckValue>
    1656:	81 11       	cpse	r24, r1
    1658:	1d c0       	rjmp	.+58     	; 0x1694 <VL53L0X_DataInit+0x216>
    165a:	20 e0       	ldi	r18, 0x00	; 0
    165c:	30 e0       	ldi	r19, 0x00	; 0
    165e:	a9 01       	movw	r20, r18
    1660:	63 e0       	ldi	r22, 0x03	; 3
    1662:	70 e0       	ldi	r23, 0x00	; 0
    1664:	c8 01       	movw	r24, r16
    1666:	0e 94 b9 08 	call	0x1172	; 0x1172 <VL53L0X_SetLimitCheckValue>
    166a:	81 11       	cpse	r24, r1
    166c:	13 c0       	rjmp	.+38     	; 0x1694 <VL53L0X_DataInit+0x216>
    166e:	8f ef       	ldi	r24, 0xFF	; 255
    1670:	f8 01       	movw	r30, r16
    1672:	e3 5e       	subi	r30, 0xE3	; 227
    1674:	fe 4f       	sbci	r31, 0xFE	; 254
    1676:	80 83       	st	Z, r24
    1678:	4f ef       	ldi	r20, 0xFF	; 255
    167a:	61 e0       	ldi	r22, 0x01	; 1
    167c:	c8 01       	movw	r24, r16
    167e:	0e 94 c8 22 	call	0x4590	; 0x4590 <VL53L0X_WrByte>
    1682:	91 e0       	ldi	r25, 0x01	; 1
    1684:	f8 01       	movw	r30, r16
    1686:	e1 5e       	subi	r30, 0xE1	; 225
    1688:	fe 4f       	sbci	r31, 0xFE	; 254
    168a:	90 83       	st	Z, r25
    168c:	81 11       	cpse	r24, r1
    168e:	02 c0       	rjmp	.+4      	; 0x1694 <VL53L0X_DataInit+0x216>
    1690:	7b 97       	sbiw	r30, 0x1b	; 27
    1692:	10 82       	st	Z, r1
    1694:	ec 96       	adiw	r28, 0x3c	; 60
    1696:	0f b6       	in	r0, 0x3f	; 63
    1698:	f8 94       	cli
    169a:	de bf       	out	0x3e, r29	; 62
    169c:	0f be       	out	0x3f, r0	; 63
    169e:	cd bf       	out	0x3d, r28	; 61
    16a0:	df 91       	pop	r29
    16a2:	cf 91       	pop	r28
    16a4:	1f 91       	pop	r17
    16a6:	0f 91       	pop	r16
    16a8:	ff 90       	pop	r15
    16aa:	ef 90       	pop	r14
    16ac:	08 95       	ret

000016ae <VL53L0X_PerformRefCalibration>:
    16ae:	21 e0       	ldi	r18, 0x01	; 1
    16b0:	0c 94 ad 14 	jmp	0x295a	; 0x295a <VL53L0X_perform_ref_calibration>

000016b4 <VL53L0X_GetRangingMeasurementData>:
    16b4:	2f 92       	push	r2
    16b6:	3f 92       	push	r3
    16b8:	4f 92       	push	r4
    16ba:	5f 92       	push	r5
    16bc:	6f 92       	push	r6
    16be:	7f 92       	push	r7
    16c0:	8f 92       	push	r8
    16c2:	9f 92       	push	r9
    16c4:	af 92       	push	r10
    16c6:	bf 92       	push	r11
    16c8:	cf 92       	push	r12
    16ca:	df 92       	push	r13
    16cc:	ef 92       	push	r14
    16ce:	ff 92       	push	r15
    16d0:	0f 93       	push	r16
    16d2:	1f 93       	push	r17
    16d4:	cf 93       	push	r28
    16d6:	df 93       	push	r29
    16d8:	cd b7       	in	r28, 0x3d	; 61
    16da:	de b7       	in	r29, 0x3e	; 62
    16dc:	aa 97       	sbiw	r28, 0x2a	; 42
    16de:	0f b6       	in	r0, 0x3f	; 63
    16e0:	f8 94       	cli
    16e2:	de bf       	out	0x3e, r29	; 62
    16e4:	0f be       	out	0x3f, r0	; 63
    16e6:	cd bf       	out	0x3d, r28	; 61
    16e8:	4c 01       	movw	r8, r24
    16ea:	5b 01       	movw	r10, r22
    16ec:	0c e0       	ldi	r16, 0x0C	; 12
    16ee:	10 e0       	ldi	r17, 0x00	; 0
    16f0:	20 e0       	ldi	r18, 0x00	; 0
    16f2:	30 e0       	ldi	r19, 0x00	; 0
    16f4:	ae 01       	movw	r20, r28
    16f6:	46 5e       	subi	r20, 0xE6	; 230
    16f8:	5f 4f       	sbci	r21, 0xFF	; 255
    16fa:	64 e1       	ldi	r22, 0x14	; 20
    16fc:	0e 94 af 22 	call	0x455e	; 0x455e <VL53L0X_ReadMulti>
    1700:	81 11       	cpse	r24, r1
    1702:	fd c0       	rjmp	.+506    	; 0x18fe <VL53L0X_GetRangingMeasurementData+0x24a>
    1704:	d5 01       	movw	r26, r10
    1706:	56 96       	adiw	r26, 0x16	; 22
    1708:	1c 92       	st	X, r1
    170a:	56 97       	sbiw	r26, 0x16	; 22
    170c:	f5 01       	movw	r30, r10
    170e:	10 82       	st	Z, r1
    1710:	11 82       	std	Z+1, r1	; 0x01
    1712:	12 82       	std	Z+2, r1	; 0x02
    1714:	13 82       	std	Z+3, r1	; 0x03
    1716:	6c a1       	ldd	r22, Y+36	; 0x24
    1718:	70 e0       	ldi	r23, 0x00	; 0
    171a:	76 2f       	mov	r23, r22
    171c:	66 27       	eor	r22, r22
    171e:	8d a1       	ldd	r24, Y+37	; 0x25
    1720:	68 0f       	add	r22, r24
    1722:	71 1d       	adc	r23, r1
    1724:	14 96       	adiw	r26, 0x04	; 4
    1726:	1d 92       	st	X+, r1
    1728:	1d 92       	st	X+, r1
    172a:	1d 92       	st	X+, r1
    172c:	1c 92       	st	X, r1
    172e:	17 97       	sbiw	r26, 0x07	; 7
    1730:	e9 a1       	ldd	r30, Y+33	; 0x21
    1732:	f0 e0       	ldi	r31, 0x00	; 0
    1734:	fe 2f       	mov	r31, r30
    1736:	ee 27       	eor	r30, r30
    1738:	ff 0f       	add	r31, r31
    173a:	2f 01       	movw	r4, r30
    173c:	61 2c       	mov	r6, r1
    173e:	71 2c       	mov	r7, r1
    1740:	1c 96       	adiw	r26, 0x0c	; 12
    1742:	4d 92       	st	X+, r4
    1744:	5d 92       	st	X+, r5
    1746:	6d 92       	st	X+, r6
    1748:	7c 92       	st	X, r7
    174a:	1f 97       	sbiw	r26, 0x0f	; 15
    174c:	8b a1       	ldd	r24, Y+35	; 0x23
    174e:	90 e0       	ldi	r25, 0x00	; 0
    1750:	98 2f       	mov	r25, r24
    1752:	88 27       	eor	r24, r24
    1754:	99 0f       	add	r25, r25
    1756:	8c 01       	movw	r16, r24
    1758:	20 e0       	ldi	r18, 0x00	; 0
    175a:	30 e0       	ldi	r19, 0x00	; 0
    175c:	50 96       	adiw	r26, 0x10	; 16
    175e:	0d 93       	st	X+, r16
    1760:	1d 93       	st	X+, r17
    1762:	2d 93       	st	X+, r18
    1764:	3c 93       	st	X, r19
    1766:	53 97       	sbiw	r26, 0x13	; 19
    1768:	0c 8d       	ldd	r16, Y+28	; 0x1c
    176a:	10 e0       	ldi	r17, 0x00	; 0
    176c:	10 2f       	mov	r17, r16
    176e:	00 27       	eor	r16, r16
    1770:	8d 8d       	ldd	r24, Y+29	; 0x1d
    1772:	08 0f       	add	r16, r24
    1774:	11 1d       	adc	r17, r1
    1776:	55 96       	adiw	r26, 0x15	; 21
    1778:	1c 93       	st	X, r17
    177a:	0e 93       	st	-X, r16
    177c:	54 97       	sbiw	r26, 0x14	; 20
    177e:	3a 8c       	ldd	r3, Y+26	; 0x1a
    1780:	d4 01       	movw	r26, r8
    1782:	a7 5c       	subi	r26, 0xC7	; 199
    1784:	be 4f       	sbci	r27, 0xFE	; 254
    1786:	2d 91       	ld	r18, X+
    1788:	3c 91       	ld	r19, X
    178a:	11 97       	sbiw	r26, 0x01	; 1
    178c:	5b 97       	sbiw	r26, 0x1b	; 27
    178e:	2c 90       	ld	r2, X
    1790:	28 3e       	cpi	r18, 0xE8	; 232
    1792:	b3 e0       	ldi	r27, 0x03	; 3
    1794:	3b 07       	cpc	r19, r27
    1796:	09 f4       	brne	.+2      	; 0x179a <VL53L0X_GetRangingMeasurementData+0xe6>
    1798:	3f c0       	rjmp	.+126    	; 0x1818 <VL53L0X_GetRangingMeasurementData+0x164>
    179a:	62 9f       	mul	r22, r18
    179c:	c0 01       	movw	r24, r0
    179e:	63 9f       	mul	r22, r19
    17a0:	90 0d       	add	r25, r0
    17a2:	72 9f       	mul	r23, r18
    17a4:	90 0d       	add	r25, r0
    17a6:	11 24       	eor	r1, r1
    17a8:	8c 50       	subi	r24, 0x0C	; 12
    17aa:	9e 4f       	sbci	r25, 0xFE	; 254
    17ac:	68 ee       	ldi	r22, 0xE8	; 232
    17ae:	73 e0       	ldi	r23, 0x03	; 3
    17b0:	0e 94 5b 24 	call	0x48b6	; 0x48b6 <__udivmodhi4>
    17b4:	d4 01       	movw	r26, r8
    17b6:	5d 96       	adiw	r26, 0x1d	; 29
    17b8:	8d 91       	ld	r24, X+
    17ba:	9d 91       	ld	r25, X+
    17bc:	0d 90       	ld	r0, X+
    17be:	bc 91       	ld	r27, X
    17c0:	a0 2d       	mov	r26, r0
    17c2:	8f a3       	std	Y+39, r24	; 0x27
    17c4:	98 a7       	std	Y+40, r25	; 0x28
    17c6:	a9 a7       	std	Y+41, r26	; 0x29
    17c8:	ba a7       	std	Y+42, r27	; 0x2a
    17ca:	d4 01       	movw	r26, r8
    17cc:	5a 96       	adiw	r26, 0x1a	; 26
    17ce:	2c 91       	ld	r18, X
    17d0:	22 23       	and	r18, r18
    17d2:	11 f1       	breq	.+68     	; 0x1818 <VL53L0X_GetRangingMeasurementData+0x164>
    17d4:	08 9f       	mul	r16, r24
    17d6:	60 01       	movw	r12, r0
    17d8:	09 9f       	mul	r16, r25
    17da:	d0 0c       	add	r13, r0
    17dc:	18 9f       	mul	r17, r24
    17de:	d0 0c       	add	r13, r0
    17e0:	11 24       	eor	r1, r1
    17e2:	cd 2c       	mov	r12, r13
    17e4:	dd 24       	eor	r13, r13
    17e6:	e1 2c       	mov	r14, r1
    17e8:	f1 2c       	mov	r15, r1
    17ea:	4c 14       	cp	r4, r12
    17ec:	5d 04       	cpc	r5, r13
    17ee:	6e 04       	cpc	r6, r14
    17f0:	7f 04       	cpc	r7, r15
    17f2:	29 f4       	brne	.+10     	; 0x17fe <VL53L0X_GetRangingMeasurementData+0x14a>
    17f4:	21 10       	cpse	r2, r1
    17f6:	13 c0       	rjmp	.+38     	; 0x181e <VL53L0X_GetRangingMeasurementData+0x16a>
    17f8:	60 ee       	ldi	r22, 0xE0	; 224
    17fa:	7a e8       	ldi	r23, 0x8A	; 138
    17fc:	20 c0       	rjmp	.+64     	; 0x183e <VL53L0X_GetRangingMeasurementData+0x18a>
    17fe:	9f 01       	movw	r18, r30
    1800:	db 01       	movw	r26, r22
    1802:	0e 94 b6 24 	call	0x496c	; 0x496c <__umulhisi3>
    1806:	a3 01       	movw	r20, r6
    1808:	92 01       	movw	r18, r4
    180a:	2c 19       	sub	r18, r12
    180c:	3d 09       	sbc	r19, r13
    180e:	4e 09       	sbc	r20, r14
    1810:	5f 09       	sbc	r21, r15
    1812:	0e 94 6f 24 	call	0x48de	; 0x48de <__udivmodsi4>
    1816:	b9 01       	movw	r22, r18
    1818:	22 20       	and	r2, r2
    181a:	89 f0       	breq	.+34     	; 0x183e <VL53L0X_GetRangingMeasurementData+0x18a>
    181c:	02 c0       	rjmp	.+4      	; 0x1822 <VL53L0X_GetRangingMeasurementData+0x16e>
    181e:	68 eb       	ldi	r22, 0xB8	; 184
    1820:	72 e2       	ldi	r23, 0x22	; 34
    1822:	cb 01       	movw	r24, r22
    1824:	96 95       	lsr	r25
    1826:	87 95       	ror	r24
    1828:	96 95       	lsr	r25
    182a:	87 95       	ror	r24
    182c:	f5 01       	movw	r30, r10
    182e:	91 87       	std	Z+9, r25	; 0x09
    1830:	80 87       	std	Z+8, r24	; 0x08
    1832:	62 95       	swap	r22
    1834:	66 0f       	add	r22, r22
    1836:	66 0f       	add	r22, r22
    1838:	60 7c       	andi	r22, 0xC0	; 192
    183a:	67 8b       	std	Z+23, r22	; 0x17
    183c:	07 c0       	rjmp	.+14     	; 0x184c <VL53L0X_GetRangingMeasurementData+0x198>
    183e:	d5 01       	movw	r26, r10
    1840:	19 96       	adiw	r26, 0x09	; 9
    1842:	7c 93       	st	X, r23
    1844:	6e 93       	st	-X, r22
    1846:	18 97       	sbiw	r26, 0x08	; 8
    1848:	57 96       	adiw	r26, 0x17	; 23
    184a:	1c 92       	st	X, r1
    184c:	fe 01       	movw	r30, r28
    184e:	b6 96       	adiw	r30, 0x26	; 38
    1850:	6f 01       	movw	r12, r30
    1852:	75 01       	movw	r14, r10
    1854:	a3 01       	movw	r20, r6
    1856:	92 01       	movw	r18, r4
    1858:	63 2d       	mov	r22, r3
    185a:	c4 01       	movw	r24, r8
    185c:	0e 94 12 21 	call	0x4224	; 0x4224 <VL53L0X_get_pal_range_status>
    1860:	81 11       	cpse	r24, r1
    1862:	4d c0       	rjmp	.+154    	; 0x18fe <VL53L0X_GetRangingMeasurementData+0x24a>
    1864:	9e a1       	ldd	r25, Y+38	; 0x26
    1866:	d5 01       	movw	r26, r10
    1868:	58 96       	adiw	r26, 0x18	; 24
    186a:	9c 93       	st	X, r25
    186c:	ba e4       	ldi	r27, 0x4A	; 74
    186e:	8b 0e       	add	r8, r27
    1870:	91 1c       	adc	r9, r1
    1872:	29 e1       	ldi	r18, 0x19	; 25
    1874:	f4 01       	movw	r30, r8
    1876:	de 01       	movw	r26, r28
    1878:	11 96       	adiw	r26, 0x01	; 1
    187a:	01 90       	ld	r0, Z+
    187c:	0d 92       	st	X+, r0
    187e:	2a 95       	dec	r18
    1880:	e1 f7       	brne	.-8      	; 0x187a <VL53L0X_GetRangingMeasurementData+0x1c6>
    1882:	d5 01       	movw	r26, r10
    1884:	18 96       	adiw	r26, 0x08	; 8
    1886:	ed 91       	ld	r30, X+
    1888:	fc 91       	ld	r31, X
    188a:	19 97       	sbiw	r26, 0x09	; 9
    188c:	57 96       	adiw	r26, 0x17	; 23
    188e:	3c 90       	ld	r3, X
    1890:	57 97       	sbiw	r26, 0x17	; 23
    1892:	1a 96       	adiw	r26, 0x0a	; 10
    1894:	6d 91       	ld	r22, X+
    1896:	7c 91       	ld	r23, X
    1898:	1b 97       	sbiw	r26, 0x0b	; 11
    189a:	1c 96       	adiw	r26, 0x0c	; 12
    189c:	4d 90       	ld	r4, X+
    189e:	5d 90       	ld	r5, X+
    18a0:	6d 90       	ld	r6, X+
    18a2:	7c 90       	ld	r7, X
    18a4:	1f 97       	sbiw	r26, 0x0f	; 15
    18a6:	50 96       	adiw	r26, 0x10	; 16
    18a8:	cd 90       	ld	r12, X+
    18aa:	dd 90       	ld	r13, X+
    18ac:	ed 90       	ld	r14, X+
    18ae:	fc 90       	ld	r15, X
    18b0:	53 97       	sbiw	r26, 0x13	; 19
    18b2:	54 96       	adiw	r26, 0x14	; 20
    18b4:	4d 91       	ld	r20, X+
    18b6:	5c 91       	ld	r21, X
    18b8:	55 97       	sbiw	r26, 0x15	; 21
    18ba:	14 96       	adiw	r26, 0x04	; 4
    18bc:	0d 91       	ld	r16, X+
    18be:	1d 91       	ld	r17, X+
    18c0:	2d 91       	ld	r18, X+
    18c2:	3c 91       	ld	r19, X
    18c4:	17 97       	sbiw	r26, 0x07	; 7
    18c6:	0d 83       	std	Y+5, r16	; 0x05
    18c8:	1e 83       	std	Y+6, r17	; 0x06
    18ca:	2f 83       	std	Y+7, r18	; 0x07
    18cc:	38 87       	std	Y+8, r19	; 0x08
    18ce:	fa 87       	std	Y+10, r31	; 0x0a
    18d0:	e9 87       	std	Y+9, r30	; 0x09
    18d2:	7c 87       	std	Y+12, r23	; 0x0c
    18d4:	6b 87       	std	Y+11, r22	; 0x0b
    18d6:	4d 86       	std	Y+13, r4	; 0x0d
    18d8:	5e 86       	std	Y+14, r5	; 0x0e
    18da:	6f 86       	std	Y+15, r6	; 0x0f
    18dc:	78 8a       	std	Y+16, r7	; 0x10
    18de:	c9 8a       	std	Y+17, r12	; 0x11
    18e0:	da 8a       	std	Y+18, r13	; 0x12
    18e2:	eb 8a       	std	Y+19, r14	; 0x13
    18e4:	fc 8a       	std	Y+20, r15	; 0x14
    18e6:	5e 8b       	std	Y+22, r21	; 0x16
    18e8:	4d 8b       	std	Y+21, r20	; 0x15
    18ea:	38 8e       	std	Y+24, r3	; 0x18
    18ec:	99 8f       	std	Y+25, r25	; 0x19
    18ee:	99 e1       	ldi	r25, 0x19	; 25
    18f0:	fe 01       	movw	r30, r28
    18f2:	31 96       	adiw	r30, 0x01	; 1
    18f4:	d4 01       	movw	r26, r8
    18f6:	01 90       	ld	r0, Z+
    18f8:	0d 92       	st	X+, r0
    18fa:	9a 95       	dec	r25
    18fc:	e1 f7       	brne	.-8      	; 0x18f6 <VL53L0X_GetRangingMeasurementData+0x242>
    18fe:	aa 96       	adiw	r28, 0x2a	; 42
    1900:	0f b6       	in	r0, 0x3f	; 63
    1902:	f8 94       	cli
    1904:	de bf       	out	0x3e, r29	; 62
    1906:	0f be       	out	0x3f, r0	; 63
    1908:	cd bf       	out	0x3d, r28	; 61
    190a:	df 91       	pop	r29
    190c:	cf 91       	pop	r28
    190e:	1f 91       	pop	r17
    1910:	0f 91       	pop	r16
    1912:	ff 90       	pop	r15
    1914:	ef 90       	pop	r14
    1916:	df 90       	pop	r13
    1918:	cf 90       	pop	r12
    191a:	bf 90       	pop	r11
    191c:	af 90       	pop	r10
    191e:	9f 90       	pop	r9
    1920:	8f 90       	pop	r8
    1922:	7f 90       	pop	r7
    1924:	6f 90       	pop	r6
    1926:	5f 90       	pop	r5
    1928:	4f 90       	pop	r4
    192a:	3f 90       	pop	r3
    192c:	2f 90       	pop	r2
    192e:	08 95       	ret

00001930 <VL53L0X_GetInterruptThresholds>:
    1930:	cf 92       	push	r12
    1932:	df 92       	push	r13
    1934:	ef 92       	push	r14
    1936:	ff 92       	push	r15
    1938:	0f 93       	push	r16
    193a:	1f 93       	push	r17
    193c:	cf 93       	push	r28
    193e:	df 93       	push	r29
    1940:	00 d0       	rcall	.+0      	; 0x1942 <VL53L0X_GetInterruptThresholds+0x12>
    1942:	cd b7       	in	r28, 0x3d	; 61
    1944:	de b7       	in	r29, 0x3e	; 62
    1946:	8c 01       	movw	r16, r24
    1948:	6a 01       	movw	r12, r20
    194a:	79 01       	movw	r14, r18
    194c:	ae 01       	movw	r20, r28
    194e:	4f 5f       	subi	r20, 0xFF	; 255
    1950:	5f 4f       	sbci	r21, 0xFF	; 255
    1952:	6e e0       	ldi	r22, 0x0E	; 14
    1954:	0e 94 19 23 	call	0x4632	; 0x4632 <VL53L0X_RdWord>
    1958:	f6 01       	movw	r30, r12
    195a:	10 82       	st	Z, r1
    195c:	11 82       	std	Z+1, r1	; 0x01
    195e:	12 82       	std	Z+2, r1	; 0x02
    1960:	13 82       	std	Z+3, r1	; 0x03
    1962:	81 11       	cpse	r24, r1
    1964:	0c c0       	rjmp	.+24     	; 0x197e <VL53L0X_GetInterruptThresholds+0x4e>
    1966:	ae 01       	movw	r20, r28
    1968:	4f 5f       	subi	r20, 0xFF	; 255
    196a:	5f 4f       	sbci	r21, 0xFF	; 255
    196c:	6c e0       	ldi	r22, 0x0C	; 12
    196e:	c8 01       	movw	r24, r16
    1970:	0e 94 19 23 	call	0x4632	; 0x4632 <VL53L0X_RdWord>
    1974:	f7 01       	movw	r30, r14
    1976:	10 82       	st	Z, r1
    1978:	11 82       	std	Z+1, r1	; 0x01
    197a:	12 82       	std	Z+2, r1	; 0x02
    197c:	13 82       	std	Z+3, r1	; 0x03
    197e:	0f 90       	pop	r0
    1980:	0f 90       	pop	r0
    1982:	df 91       	pop	r29
    1984:	cf 91       	pop	r28
    1986:	1f 91       	pop	r17
    1988:	0f 91       	pop	r16
    198a:	ff 90       	pop	r15
    198c:	ef 90       	pop	r14
    198e:	df 90       	pop	r13
    1990:	cf 90       	pop	r12
    1992:	08 95       	ret

00001994 <_Z37VL53L0X_CheckAndLoadInterruptSettingsP13VL53L0X_Dev_th>:
    1994:	ef 92       	push	r14
    1996:	ff 92       	push	r15
    1998:	1f 93       	push	r17
    199a:	cf 93       	push	r28
    199c:	df 93       	push	r29
    199e:	cd b7       	in	r28, 0x3d	; 61
    19a0:	de b7       	in	r29, 0x3e	; 62
    19a2:	28 97       	sbiw	r28, 0x08	; 8
    19a4:	0f b6       	in	r0, 0x3f	; 63
    19a6:	f8 94       	cli
    19a8:	de bf       	out	0x3e, r29	; 62
    19aa:	0f be       	out	0x3f, r0	; 63
    19ac:	cd bf       	out	0x3d, r28	; 61
    19ae:	7c 01       	movw	r14, r24
    19b0:	fc 01       	movw	r30, r24
    19b2:	e2 53       	subi	r30, 0x32	; 50
    19b4:	ff 4f       	sbci	r31, 0xFF	; 255
    19b6:	90 81       	ld	r25, Z
    19b8:	91 50       	subi	r25, 0x01	; 1
    19ba:	93 30       	cpi	r25, 0x03	; 3
    19bc:	08 f0       	brcs	.+2      	; 0x19c0 <_Z37VL53L0X_CheckAndLoadInterruptSettingsP13VL53L0X_Dev_th+0x2c>
    19be:	40 c0       	rjmp	.+128    	; 0x1a40 <_Z37VL53L0X_CheckAndLoadInterruptSettingsP13VL53L0X_Dev_th+0xac>
    19c0:	16 2f       	mov	r17, r22
    19c2:	9e 01       	movw	r18, r28
    19c4:	2f 5f       	subi	r18, 0xFF	; 255
    19c6:	3f 4f       	sbci	r19, 0xFF	; 255
    19c8:	ae 01       	movw	r20, r28
    19ca:	4b 5f       	subi	r20, 0xFB	; 251
    19cc:	5f 4f       	sbci	r21, 0xFF	; 255
    19ce:	61 e0       	ldi	r22, 0x01	; 1
    19d0:	c7 01       	movw	r24, r14
    19d2:	0e 94 98 0c 	call	0x1930	; 0x1930 <VL53L0X_GetInterruptThresholds>
    19d6:	4d 81       	ldd	r20, Y+5	; 0x05
    19d8:	5e 81       	ldd	r21, Y+6	; 0x06
    19da:	6f 81       	ldd	r22, Y+7	; 0x07
    19dc:	78 85       	ldd	r23, Y+8	; 0x08
    19de:	41 30       	cpi	r20, 0x01	; 1
    19e0:	51 05       	cpc	r21, r1
    19e2:	6f 4f       	sbci	r22, 0xFF	; 255
    19e4:	71 05       	cpc	r23, r1
    19e6:	48 f4       	brcc	.+18     	; 0x19fa <_Z37VL53L0X_CheckAndLoadInterruptSettingsP13VL53L0X_Dev_th+0x66>
    19e8:	49 81       	ldd	r20, Y+1	; 0x01
    19ea:	5a 81       	ldd	r21, Y+2	; 0x02
    19ec:	6b 81       	ldd	r22, Y+3	; 0x03
    19ee:	7c 81       	ldd	r23, Y+4	; 0x04
    19f0:	41 30       	cpi	r20, 0x01	; 1
    19f2:	51 05       	cpc	r21, r1
    19f4:	6f 4f       	sbci	r22, 0xFF	; 255
    19f6:	71 05       	cpc	r23, r1
    19f8:	20 f1       	brcs	.+72     	; 0x1a42 <_Z37VL53L0X_CheckAndLoadInterruptSettingsP13VL53L0X_Dev_th+0xae>
    19fa:	81 11       	cpse	r24, r1
    19fc:	22 c0       	rjmp	.+68     	; 0x1a42 <_Z37VL53L0X_CheckAndLoadInterruptSettingsP13VL53L0X_Dev_th+0xae>
    19fe:	11 23       	and	r17, r17
    1a00:	31 f0       	breq	.+12     	; 0x1a0e <_Z37VL53L0X_CheckAndLoadInterruptSettingsP13VL53L0X_Dev_th+0x7a>
    1a02:	62 e0       	ldi	r22, 0x02	; 2
    1a04:	71 e0       	ldi	r23, 0x01	; 1
    1a06:	c7 01       	movw	r24, r14
    1a08:	0e 94 3f 1f 	call	0x3e7e	; 0x3e7e <VL53L0X_load_tuning_settings>
    1a0c:	1a c0       	rjmp	.+52     	; 0x1a42 <_Z37VL53L0X_CheckAndLoadInterruptSettingsP13VL53L0X_Dev_th+0xae>
    1a0e:	44 e0       	ldi	r20, 0x04	; 4
    1a10:	6f ef       	ldi	r22, 0xFF	; 255
    1a12:	c7 01       	movw	r24, r14
    1a14:	0e 94 c8 22 	call	0x4590	; 0x4590 <VL53L0X_WrByte>
    1a18:	18 2f       	mov	r17, r24
    1a1a:	40 e0       	ldi	r20, 0x00	; 0
    1a1c:	60 e7       	ldi	r22, 0x70	; 112
    1a1e:	c7 01       	movw	r24, r14
    1a20:	0e 94 c8 22 	call	0x4590	; 0x4590 <VL53L0X_WrByte>
    1a24:	18 2b       	or	r17, r24
    1a26:	40 e0       	ldi	r20, 0x00	; 0
    1a28:	6f ef       	ldi	r22, 0xFF	; 255
    1a2a:	c7 01       	movw	r24, r14
    1a2c:	0e 94 c8 22 	call	0x4590	; 0x4590 <VL53L0X_WrByte>
    1a30:	18 2b       	or	r17, r24
    1a32:	40 e0       	ldi	r20, 0x00	; 0
    1a34:	60 e8       	ldi	r22, 0x80	; 128
    1a36:	c7 01       	movw	r24, r14
    1a38:	0e 94 c8 22 	call	0x4590	; 0x4590 <VL53L0X_WrByte>
    1a3c:	81 2b       	or	r24, r17
    1a3e:	01 c0       	rjmp	.+2      	; 0x1a42 <_Z37VL53L0X_CheckAndLoadInterruptSettingsP13VL53L0X_Dev_th+0xae>
    1a40:	80 e0       	ldi	r24, 0x00	; 0
    1a42:	28 96       	adiw	r28, 0x08	; 8
    1a44:	0f b6       	in	r0, 0x3f	; 63
    1a46:	f8 94       	cli
    1a48:	de bf       	out	0x3e, r29	; 62
    1a4a:	0f be       	out	0x3f, r0	; 63
    1a4c:	cd bf       	out	0x3d, r28	; 61
    1a4e:	df 91       	pop	r29
    1a50:	cf 91       	pop	r28
    1a52:	1f 91       	pop	r17
    1a54:	ff 90       	pop	r15
    1a56:	ef 90       	pop	r14
    1a58:	08 95       	ret

00001a5a <VL53L0X_StartMeasurement>:
    1a5a:	cf 92       	push	r12
    1a5c:	df 92       	push	r13
    1a5e:	ef 92       	push	r14
    1a60:	ff 92       	push	r15
    1a62:	0f 93       	push	r16
    1a64:	1f 93       	push	r17
    1a66:	cf 93       	push	r28
    1a68:	df 93       	push	r29
    1a6a:	1f 92       	push	r1
    1a6c:	cd b7       	in	r28, 0x3d	; 61
    1a6e:	de b7       	in	r29, 0x3e	; 62
    1a70:	8c 01       	movw	r16, r24
    1a72:	fc 01       	movw	r30, r24
    1a74:	f0 88       	ldd	r15, Z+16	; 0x10
    1a76:	41 e0       	ldi	r20, 0x01	; 1
    1a78:	60 e8       	ldi	r22, 0x80	; 128
    1a7a:	0e 94 c8 22 	call	0x4590	; 0x4590 <VL53L0X_WrByte>
    1a7e:	41 e0       	ldi	r20, 0x01	; 1
    1a80:	6f ef       	ldi	r22, 0xFF	; 255
    1a82:	c8 01       	movw	r24, r16
    1a84:	0e 94 c8 22 	call	0x4590	; 0x4590 <VL53L0X_WrByte>
    1a88:	40 e0       	ldi	r20, 0x00	; 0
    1a8a:	60 e0       	ldi	r22, 0x00	; 0
    1a8c:	c8 01       	movw	r24, r16
    1a8e:	0e 94 c8 22 	call	0x4590	; 0x4590 <VL53L0X_WrByte>
    1a92:	f8 01       	movw	r30, r16
    1a94:	e9 5d       	subi	r30, 0xD9	; 217
    1a96:	fe 4f       	sbci	r31, 0xFE	; 254
    1a98:	40 81       	ld	r20, Z
    1a9a:	61 e9       	ldi	r22, 0x91	; 145
    1a9c:	c8 01       	movw	r24, r16
    1a9e:	0e 94 c8 22 	call	0x4590	; 0x4590 <VL53L0X_WrByte>
    1aa2:	41 e0       	ldi	r20, 0x01	; 1
    1aa4:	60 e0       	ldi	r22, 0x00	; 0
    1aa6:	c8 01       	movw	r24, r16
    1aa8:	0e 94 c8 22 	call	0x4590	; 0x4590 <VL53L0X_WrByte>
    1aac:	40 e0       	ldi	r20, 0x00	; 0
    1aae:	6f ef       	ldi	r22, 0xFF	; 255
    1ab0:	c8 01       	movw	r24, r16
    1ab2:	0e 94 c8 22 	call	0x4590	; 0x4590 <VL53L0X_WrByte>
    1ab6:	40 e0       	ldi	r20, 0x00	; 0
    1ab8:	60 e8       	ldi	r22, 0x80	; 128
    1aba:	c8 01       	movw	r24, r16
    1abc:	0e 94 c8 22 	call	0x4590	; 0x4590 <VL53L0X_WrByte>
    1ac0:	f1 e0       	ldi	r31, 0x01	; 1
    1ac2:	ff 16       	cp	r15, r31
    1ac4:	89 f1       	breq	.+98     	; 0x1b28 <VL53L0X_StartMeasurement+0xce>
    1ac6:	ff 16       	cp	r15, r31
    1ac8:	20 f0       	brcs	.+8      	; 0x1ad2 <VL53L0X_StartMeasurement+0x78>
    1aca:	93 e0       	ldi	r25, 0x03	; 3
    1acc:	f9 16       	cp	r15, r25
    1ace:	a1 f1       	breq	.+104    	; 0x1b38 <VL53L0X_StartMeasurement+0xde>
    1ad0:	46 c0       	rjmp	.+140    	; 0x1b5e <VL53L0X_StartMeasurement+0x104>
    1ad2:	41 e0       	ldi	r20, 0x01	; 1
    1ad4:	60 e0       	ldi	r22, 0x00	; 0
    1ad6:	c8 01       	movw	r24, r16
    1ad8:	0e 94 c8 22 	call	0x4590	; 0x4590 <VL53L0X_WrByte>
    1adc:	91 e0       	ldi	r25, 0x01	; 1
    1ade:	99 83       	std	Y+1, r25	; 0x01
    1ae0:	81 11       	cpse	r24, r1
    1ae2:	40 c0       	rjmp	.+128    	; 0x1b64 <VL53L0X_StartMeasurement+0x10a>
    1ae4:	c1 2c       	mov	r12, r1
    1ae6:	d1 2c       	mov	r13, r1
    1ae8:	76 01       	movw	r14, r12
    1aea:	ef ef       	ldi	r30, 0xFF	; 255
    1aec:	ce 1a       	sub	r12, r30
    1aee:	de 0a       	sbc	r13, r30
    1af0:	ee 0a       	sbc	r14, r30
    1af2:	fe 0a       	sbc	r15, r30
    1af4:	99 81       	ldd	r25, Y+1	; 0x01
    1af6:	90 ff       	sbrs	r25, 0
    1af8:	10 c0       	rjmp	.+32     	; 0x1b1a <VL53L0X_StartMeasurement+0xc0>
    1afa:	81 11       	cpse	r24, r1
    1afc:	0e c0       	rjmp	.+28     	; 0x1b1a <VL53L0X_StartMeasurement+0xc0>
    1afe:	f8 ec       	ldi	r31, 0xC8	; 200
    1b00:	cf 16       	cp	r12, r31
    1b02:	d1 04       	cpc	r13, r1
    1b04:	e1 04       	cpc	r14, r1
    1b06:	f1 04       	cpc	r15, r1
    1b08:	61 f1       	breq	.+88     	; 0x1b62 <VL53L0X_StartMeasurement+0x108>
    1b0a:	ae 01       	movw	r20, r28
    1b0c:	4f 5f       	subi	r20, 0xFF	; 255
    1b0e:	5f 4f       	sbci	r21, 0xFF	; 255
    1b10:	60 e0       	ldi	r22, 0x00	; 0
    1b12:	c8 01       	movw	r24, r16
    1b14:	0e 94 0d 23 	call	0x461a	; 0x461a <VL53L0X_RdByte>
    1b18:	e8 cf       	rjmp	.-48     	; 0x1aea <VL53L0X_StartMeasurement+0x90>
    1b1a:	98 ec       	ldi	r25, 0xC8	; 200
    1b1c:	c9 16       	cp	r12, r25
    1b1e:	d1 04       	cpc	r13, r1
    1b20:	e1 04       	cpc	r14, r1
    1b22:	f1 04       	cpc	r15, r1
    1b24:	f9 f4       	brne	.+62     	; 0x1b64 <VL53L0X_StartMeasurement+0x10a>
    1b26:	1d c0       	rjmp	.+58     	; 0x1b62 <VL53L0X_StartMeasurement+0x108>
    1b28:	81 11       	cpse	r24, r1
    1b2a:	04 c0       	rjmp	.+8      	; 0x1b34 <VL53L0X_StartMeasurement+0xda>
    1b2c:	61 e0       	ldi	r22, 0x01	; 1
    1b2e:	c8 01       	movw	r24, r16
    1b30:	0e 94 ca 0c 	call	0x1994	; 0x1994 <_Z37VL53L0X_CheckAndLoadInterruptSettingsP13VL53L0X_Dev_th>
    1b34:	42 e0       	ldi	r20, 0x02	; 2
    1b36:	07 c0       	rjmp	.+14     	; 0x1b46 <VL53L0X_StartMeasurement+0xec>
    1b38:	81 11       	cpse	r24, r1
    1b3a:	04 c0       	rjmp	.+8      	; 0x1b44 <VL53L0X_StartMeasurement+0xea>
    1b3c:	61 e0       	ldi	r22, 0x01	; 1
    1b3e:	c8 01       	movw	r24, r16
    1b40:	0e 94 ca 0c 	call	0x1994	; 0x1994 <_Z37VL53L0X_CheckAndLoadInterruptSettingsP13VL53L0X_Dev_th>
    1b44:	44 e0       	ldi	r20, 0x04	; 4
    1b46:	60 e0       	ldi	r22, 0x00	; 0
    1b48:	c8 01       	movw	r24, r16
    1b4a:	0e 94 c8 22 	call	0x4590	; 0x4590 <VL53L0X_WrByte>
    1b4e:	81 11       	cpse	r24, r1
    1b50:	09 c0       	rjmp	.+18     	; 0x1b64 <VL53L0X_StartMeasurement+0x10a>
    1b52:	f8 01       	movw	r30, r16
    1b54:	e1 5e       	subi	r30, 0xE1	; 225
    1b56:	fe 4f       	sbci	r31, 0xFE	; 254
    1b58:	94 e0       	ldi	r25, 0x04	; 4
    1b5a:	90 83       	st	Z, r25
    1b5c:	03 c0       	rjmp	.+6      	; 0x1b64 <VL53L0X_StartMeasurement+0x10a>
    1b5e:	88 ef       	ldi	r24, 0xF8	; 248
    1b60:	01 c0       	rjmp	.+2      	; 0x1b64 <VL53L0X_StartMeasurement+0x10a>
    1b62:	89 ef       	ldi	r24, 0xF9	; 249
    1b64:	0f 90       	pop	r0
    1b66:	df 91       	pop	r29
    1b68:	cf 91       	pop	r28
    1b6a:	1f 91       	pop	r17
    1b6c:	0f 91       	pop	r16
    1b6e:	ff 90       	pop	r15
    1b70:	ef 90       	pop	r14
    1b72:	df 90       	pop	r13
    1b74:	cf 90       	pop	r12
    1b76:	08 95       	ret

00001b78 <VL53L0X_PerformSingleMeasurement>:
    1b78:	1f 93       	push	r17
    1b7a:	cf 93       	push	r28
    1b7c:	df 93       	push	r29
    1b7e:	ec 01       	movw	r28, r24
    1b80:	18 89       	ldd	r17, Y+16	; 0x10
    1b82:	11 23       	and	r17, r17
    1b84:	31 f0       	breq	.+12     	; 0x1b92 <VL53L0X_PerformSingleMeasurement+0x1a>
    1b86:	ce 01       	movw	r24, r28
    1b88:	0e 94 0f 17 	call	0x2e1e	; 0x2e1e <VL53L0X_measurement_poll_for_completion>
    1b8c:	88 23       	and	r24, r24
    1b8e:	31 f0       	breq	.+12     	; 0x1b9c <VL53L0X_PerformSingleMeasurement+0x24>
    1b90:	0b c0       	rjmp	.+22     	; 0x1ba8 <VL53L0X_PerformSingleMeasurement+0x30>
    1b92:	0e 94 2d 0d 	call	0x1a5a	; 0x1a5a <VL53L0X_StartMeasurement>
    1b96:	81 11       	cpse	r24, r1
    1b98:	07 c0       	rjmp	.+14     	; 0x1ba8 <VL53L0X_PerformSingleMeasurement+0x30>
    1b9a:	f5 cf       	rjmp	.-22     	; 0x1b86 <VL53L0X_PerformSingleMeasurement+0xe>
    1b9c:	11 11       	cpse	r17, r1
    1b9e:	04 c0       	rjmp	.+8      	; 0x1ba8 <VL53L0X_PerformSingleMeasurement+0x30>
    1ba0:	c1 5e       	subi	r28, 0xE1	; 225
    1ba2:	de 4f       	sbci	r29, 0xFE	; 254
    1ba4:	93 e0       	ldi	r25, 0x03	; 3
    1ba6:	98 83       	st	Y, r25
    1ba8:	df 91       	pop	r29
    1baa:	cf 91       	pop	r28
    1bac:	1f 91       	pop	r17
    1bae:	08 95       	ret

00001bb0 <VL53L0X_ClearInterruptMask>:
    1bb0:	ef 92       	push	r14
    1bb2:	ff 92       	push	r15
    1bb4:	0f 93       	push	r16
    1bb6:	1f 93       	push	r17
    1bb8:	cf 93       	push	r28
    1bba:	df 93       	push	r29
    1bbc:	1f 92       	push	r1
    1bbe:	cd b7       	in	r28, 0x3d	; 61
    1bc0:	de b7       	in	r29, 0x3e	; 62
    1bc2:	7c 01       	movw	r14, r24
    1bc4:	00 e0       	ldi	r16, 0x00	; 0
    1bc6:	41 e0       	ldi	r20, 0x01	; 1
    1bc8:	6b e0       	ldi	r22, 0x0B	; 11
    1bca:	c7 01       	movw	r24, r14
    1bcc:	0e 94 c8 22 	call	0x4590	; 0x4590 <VL53L0X_WrByte>
    1bd0:	18 2f       	mov	r17, r24
    1bd2:	40 e0       	ldi	r20, 0x00	; 0
    1bd4:	6b e0       	ldi	r22, 0x0B	; 11
    1bd6:	c7 01       	movw	r24, r14
    1bd8:	0e 94 c8 22 	call	0x4590	; 0x4590 <VL53L0X_WrByte>
    1bdc:	18 2b       	or	r17, r24
    1bde:	ae 01       	movw	r20, r28
    1be0:	4f 5f       	subi	r20, 0xFF	; 255
    1be2:	5f 4f       	sbci	r21, 0xFF	; 255
    1be4:	63 e1       	ldi	r22, 0x13	; 19
    1be6:	c7 01       	movw	r24, r14
    1be8:	0e 94 0d 23 	call	0x461a	; 0x461a <VL53L0X_RdByte>
    1bec:	81 2b       	or	r24, r17
    1bee:	0f 5f       	subi	r16, 0xFF	; 255
    1bf0:	99 81       	ldd	r25, Y+1	; 0x01
    1bf2:	97 70       	andi	r25, 0x07	; 7
    1bf4:	29 f0       	breq	.+10     	; 0x1c00 <VL53L0X_ClearInterruptMask+0x50>
    1bf6:	03 30       	cpi	r16, 0x03	; 3
    1bf8:	29 f0       	breq	.+10     	; 0x1c04 <VL53L0X_ClearInterruptMask+0x54>
    1bfa:	88 23       	and	r24, r24
    1bfc:	21 f3       	breq	.-56     	; 0x1bc6 <VL53L0X_ClearInterruptMask+0x16>
    1bfe:	03 c0       	rjmp	.+6      	; 0x1c06 <VL53L0X_ClearInterruptMask+0x56>
    1c00:	03 30       	cpi	r16, 0x03	; 3
    1c02:	09 f4       	brne	.+2      	; 0x1c06 <VL53L0X_ClearInterruptMask+0x56>
    1c04:	84 ef       	ldi	r24, 0xF4	; 244
    1c06:	0f 90       	pop	r0
    1c08:	df 91       	pop	r29
    1c0a:	cf 91       	pop	r28
    1c0c:	1f 91       	pop	r17
    1c0e:	0f 91       	pop	r16
    1c10:	ff 90       	pop	r15
    1c12:	ef 90       	pop	r14
    1c14:	08 95       	ret

00001c16 <VL53L0X_PerformSingleRangingMeasurement>:
    1c16:	0f 93       	push	r16
    1c18:	1f 93       	push	r17
    1c1a:	cf 93       	push	r28
    1c1c:	df 93       	push	r29
    1c1e:	ec 01       	movw	r28, r24
    1c20:	8b 01       	movw	r16, r22
    1c22:	18 8a       	std	Y+16, r1	; 0x10
    1c24:	0e 94 bc 0d 	call	0x1b78	; 0x1b78 <VL53L0X_PerformSingleMeasurement>
    1c28:	81 11       	cpse	r24, r1
    1c2a:	10 c0       	rjmp	.+32     	; 0x1c4c <VL53L0X_PerformSingleRangingMeasurement+0x36>
    1c2c:	b8 01       	movw	r22, r16
    1c2e:	ce 01       	movw	r24, r28
    1c30:	0e 94 5a 0b 	call	0x16b4	; 0x16b4 <VL53L0X_GetRangingMeasurementData>
    1c34:	81 11       	cpse	r24, r1
    1c36:	0a c0       	rjmp	.+20     	; 0x1c4c <VL53L0X_PerformSingleRangingMeasurement+0x36>
    1c38:	40 e0       	ldi	r20, 0x00	; 0
    1c3a:	50 e0       	ldi	r21, 0x00	; 0
    1c3c:	ba 01       	movw	r22, r20
    1c3e:	ce 01       	movw	r24, r28
    1c40:	df 91       	pop	r29
    1c42:	cf 91       	pop	r28
    1c44:	1f 91       	pop	r17
    1c46:	0f 91       	pop	r16
    1c48:	0c 94 d8 0d 	jmp	0x1bb0	; 0x1bb0 <VL53L0X_ClearInterruptMask>
    1c4c:	df 91       	pop	r29
    1c4e:	cf 91       	pop	r28
    1c50:	1f 91       	pop	r17
    1c52:	0f 91       	pop	r16
    1c54:	08 95       	ret

00001c56 <VL53L0X_SetGpioConfig>:
    1c56:	ef 92       	push	r14
    1c58:	ff 92       	push	r15
    1c5a:	0f 93       	push	r16
    1c5c:	cf 93       	push	r28
    1c5e:	61 11       	cpse	r22, r1
    1c60:	80 c0       	rjmp	.+256    	; 0x1d62 <VL53L0X_SetGpioConfig+0x10c>
    1c62:	44 31       	cpi	r20, 0x14	; 20
    1c64:	61 f4       	brne	.+24     	; 0x1c7e <VL53L0X_SetGpioConfig+0x28>
    1c66:	00 23       	and	r16, r16
    1c68:	11 f0       	breq	.+4      	; 0x1c6e <VL53L0X_SetGpioConfig+0x18>
    1c6a:	41 e0       	ldi	r20, 0x01	; 1
    1c6c:	01 c0       	rjmp	.+2      	; 0x1c70 <VL53L0X_SetGpioConfig+0x1a>
    1c6e:	40 e1       	ldi	r20, 0x10	; 16
    1c70:	64 e8       	ldi	r22, 0x84	; 132
    1c72:	cf 91       	pop	r28
    1c74:	0f 91       	pop	r16
    1c76:	ff 90       	pop	r15
    1c78:	ef 90       	pop	r14
    1c7a:	0c 94 c8 22 	jmp	0x4590	; 0x4590 <VL53L0X_WrByte>
    1c7e:	c2 2f       	mov	r28, r18
    1c80:	7c 01       	movw	r14, r24
    1c82:	45 31       	cpi	r20, 0x15	; 21
    1c84:	09 f0       	breq	.+2      	; 0x1c88 <VL53L0X_SetGpioConfig+0x32>
    1c86:	5a c0       	rjmp	.+180    	; 0x1d3c <VL53L0X_SetGpioConfig+0xe6>
    1c88:	41 e0       	ldi	r20, 0x01	; 1
    1c8a:	6f ef       	ldi	r22, 0xFF	; 255
    1c8c:	0e 94 c8 22 	call	0x4590	; 0x4590 <VL53L0X_WrByte>
    1c90:	c8 2f       	mov	r28, r24
    1c92:	40 e0       	ldi	r20, 0x00	; 0
    1c94:	60 e0       	ldi	r22, 0x00	; 0
    1c96:	c7 01       	movw	r24, r14
    1c98:	0e 94 c8 22 	call	0x4590	; 0x4590 <VL53L0X_WrByte>
    1c9c:	c8 2b       	or	r28, r24
    1c9e:	40 e0       	ldi	r20, 0x00	; 0
    1ca0:	6f ef       	ldi	r22, 0xFF	; 255
    1ca2:	c7 01       	movw	r24, r14
    1ca4:	0e 94 c8 22 	call	0x4590	; 0x4590 <VL53L0X_WrByte>
    1ca8:	c8 2b       	or	r28, r24
    1caa:	41 e0       	ldi	r20, 0x01	; 1
    1cac:	60 e8       	ldi	r22, 0x80	; 128
    1cae:	c7 01       	movw	r24, r14
    1cb0:	0e 94 c8 22 	call	0x4590	; 0x4590 <VL53L0X_WrByte>
    1cb4:	c8 2b       	or	r28, r24
    1cb6:	42 e0       	ldi	r20, 0x02	; 2
    1cb8:	65 e8       	ldi	r22, 0x85	; 133
    1cba:	c7 01       	movw	r24, r14
    1cbc:	0e 94 c8 22 	call	0x4590	; 0x4590 <VL53L0X_WrByte>
    1cc0:	c8 2b       	or	r28, r24
    1cc2:	44 e0       	ldi	r20, 0x04	; 4
    1cc4:	6f ef       	ldi	r22, 0xFF	; 255
    1cc6:	c7 01       	movw	r24, r14
    1cc8:	0e 94 c8 22 	call	0x4590	; 0x4590 <VL53L0X_WrByte>
    1ccc:	c8 2b       	or	r28, r24
    1cce:	40 e0       	ldi	r20, 0x00	; 0
    1cd0:	6d ec       	ldi	r22, 0xCD	; 205
    1cd2:	c7 01       	movw	r24, r14
    1cd4:	0e 94 c8 22 	call	0x4590	; 0x4590 <VL53L0X_WrByte>
    1cd8:	c8 2b       	or	r28, r24
    1cda:	41 e1       	ldi	r20, 0x11	; 17
    1cdc:	6c ec       	ldi	r22, 0xCC	; 204
    1cde:	c7 01       	movw	r24, r14
    1ce0:	0e 94 c8 22 	call	0x4590	; 0x4590 <VL53L0X_WrByte>
    1ce4:	c8 2b       	or	r28, r24
    1ce6:	47 e0       	ldi	r20, 0x07	; 7
    1ce8:	6f ef       	ldi	r22, 0xFF	; 255
    1cea:	c7 01       	movw	r24, r14
    1cec:	0e 94 c8 22 	call	0x4590	; 0x4590 <VL53L0X_WrByte>
    1cf0:	c8 2b       	or	r28, r24
    1cf2:	40 e0       	ldi	r20, 0x00	; 0
    1cf4:	6e eb       	ldi	r22, 0xBE	; 190
    1cf6:	c7 01       	movw	r24, r14
    1cf8:	0e 94 c8 22 	call	0x4590	; 0x4590 <VL53L0X_WrByte>
    1cfc:	c8 2b       	or	r28, r24
    1cfe:	46 e0       	ldi	r20, 0x06	; 6
    1d00:	6f ef       	ldi	r22, 0xFF	; 255
    1d02:	c7 01       	movw	r24, r14
    1d04:	0e 94 c8 22 	call	0x4590	; 0x4590 <VL53L0X_WrByte>
    1d08:	c8 2b       	or	r28, r24
    1d0a:	49 e0       	ldi	r20, 0x09	; 9
    1d0c:	6c ec       	ldi	r22, 0xCC	; 204
    1d0e:	c7 01       	movw	r24, r14
    1d10:	0e 94 c8 22 	call	0x4590	; 0x4590 <VL53L0X_WrByte>
    1d14:	c8 2b       	or	r28, r24
    1d16:	40 e0       	ldi	r20, 0x00	; 0
    1d18:	6f ef       	ldi	r22, 0xFF	; 255
    1d1a:	c7 01       	movw	r24, r14
    1d1c:	0e 94 c8 22 	call	0x4590	; 0x4590 <VL53L0X_WrByte>
    1d20:	c8 2b       	or	r28, r24
    1d22:	41 e0       	ldi	r20, 0x01	; 1
    1d24:	6f ef       	ldi	r22, 0xFF	; 255
    1d26:	c7 01       	movw	r24, r14
    1d28:	0e 94 c8 22 	call	0x4590	; 0x4590 <VL53L0X_WrByte>
    1d2c:	c8 2b       	or	r28, r24
    1d2e:	40 e0       	ldi	r20, 0x00	; 0
    1d30:	60 e0       	ldi	r22, 0x00	; 0
    1d32:	c7 01       	movw	r24, r14
    1d34:	0e 94 c8 22 	call	0x4590	; 0x4590 <VL53L0X_WrByte>
    1d38:	8c 2b       	or	r24, r28
    1d3a:	37 c0       	rjmp	.+110    	; 0x1daa <VL53L0X_SetGpioConfig+0x154>
    1d3c:	22 30       	cpi	r18, 0x02	; 2
    1d3e:	69 f0       	breq	.+26     	; 0x1d5a <VL53L0X_SetGpioConfig+0x104>
    1d40:	30 f4       	brcc	.+12     	; 0x1d4e <VL53L0X_SetGpioConfig+0xf8>
    1d42:	22 23       	and	r18, r18
    1d44:	81 f0       	breq	.+32     	; 0x1d66 <VL53L0X_SetGpioConfig+0x110>
    1d46:	21 30       	cpi	r18, 0x01	; 1
    1d48:	79 f5       	brne	.+94     	; 0x1da8 <VL53L0X_SetGpioConfig+0x152>
    1d4a:	41 e0       	ldi	r20, 0x01	; 1
    1d4c:	0d c0       	rjmp	.+26     	; 0x1d68 <VL53L0X_SetGpioConfig+0x112>
    1d4e:	23 30       	cpi	r18, 0x03	; 3
    1d50:	31 f0       	breq	.+12     	; 0x1d5e <VL53L0X_SetGpioConfig+0x108>
    1d52:	24 30       	cpi	r18, 0x04	; 4
    1d54:	49 f5       	brne	.+82     	; 0x1da8 <VL53L0X_SetGpioConfig+0x152>
    1d56:	44 e0       	ldi	r20, 0x04	; 4
    1d58:	07 c0       	rjmp	.+14     	; 0x1d68 <VL53L0X_SetGpioConfig+0x112>
    1d5a:	42 e0       	ldi	r20, 0x02	; 2
    1d5c:	05 c0       	rjmp	.+10     	; 0x1d68 <VL53L0X_SetGpioConfig+0x112>
    1d5e:	43 e0       	ldi	r20, 0x03	; 3
    1d60:	03 c0       	rjmp	.+6      	; 0x1d68 <VL53L0X_SetGpioConfig+0x112>
    1d62:	86 ef       	ldi	r24, 0xF6	; 246
    1d64:	22 c0       	rjmp	.+68     	; 0x1daa <VL53L0X_SetGpioConfig+0x154>
    1d66:	40 e0       	ldi	r20, 0x00	; 0
    1d68:	6a e0       	ldi	r22, 0x0A	; 10
    1d6a:	c7 01       	movw	r24, r14
    1d6c:	0e 94 c8 22 	call	0x4590	; 0x4590 <VL53L0X_WrByte>
    1d70:	81 11       	cpse	r24, r1
    1d72:	1b c0       	rjmp	.+54     	; 0x1daa <VL53L0X_SetGpioConfig+0x154>
    1d74:	00 23       	and	r16, r16
    1d76:	11 f0       	breq	.+4      	; 0x1d7c <VL53L0X_SetGpioConfig+0x126>
    1d78:	20 e1       	ldi	r18, 0x10	; 16
    1d7a:	01 c0       	rjmp	.+2      	; 0x1d7e <VL53L0X_SetGpioConfig+0x128>
    1d7c:	20 e0       	ldi	r18, 0x00	; 0
    1d7e:	4f ee       	ldi	r20, 0xEF	; 239
    1d80:	64 e8       	ldi	r22, 0x84	; 132
    1d82:	c7 01       	movw	r24, r14
    1d84:	0e 94 e0 22 	call	0x45c0	; 0x45c0 <VL53L0X_UpdateByte>
    1d88:	81 11       	cpse	r24, r1
    1d8a:	0f c0       	rjmp	.+30     	; 0x1daa <VL53L0X_SetGpioConfig+0x154>
    1d8c:	f7 01       	movw	r30, r14
    1d8e:	e2 53       	subi	r30, 0x32	; 50
    1d90:	ff 4f       	sbci	r31, 0xFF	; 255
    1d92:	c0 83       	st	Z, r28
    1d94:	40 e0       	ldi	r20, 0x00	; 0
    1d96:	50 e0       	ldi	r21, 0x00	; 0
    1d98:	ba 01       	movw	r22, r20
    1d9a:	c7 01       	movw	r24, r14
    1d9c:	cf 91       	pop	r28
    1d9e:	0f 91       	pop	r16
    1da0:	ff 90       	pop	r15
    1da2:	ef 90       	pop	r14
    1da4:	0c 94 d8 0d 	jmp	0x1bb0	; 0x1bb0 <VL53L0X_ClearInterruptMask>
    1da8:	85 ef       	ldi	r24, 0xF5	; 245
    1daa:	cf 91       	pop	r28
    1dac:	0f 91       	pop	r16
    1dae:	ff 90       	pop	r15
    1db0:	ef 90       	pop	r14
    1db2:	08 95       	ret

00001db4 <VL53L0X_StaticInit>:
    1db4:	cf 92       	push	r12
    1db6:	df 92       	push	r13
    1db8:	ef 92       	push	r14
    1dba:	ff 92       	push	r15
    1dbc:	0f 93       	push	r16
    1dbe:	1f 93       	push	r17
    1dc0:	cf 93       	push	r28
    1dc2:	df 93       	push	r29
    1dc4:	cd b7       	in	r28, 0x3d	; 61
    1dc6:	de b7       	in	r29, 0x3e	; 62
    1dc8:	c7 54       	subi	r28, 0x47	; 71
    1dca:	d1 09       	sbc	r29, r1
    1dcc:	0f b6       	in	r0, 0x3f	; 63
    1dce:	f8 94       	cli
    1dd0:	de bf       	out	0x3e, r29	; 62
    1dd2:	0f be       	out	0x3f, r0	; 63
    1dd4:	cd bf       	out	0x3d, r28	; 61
    1dd6:	7c 01       	movw	r14, r24
    1dd8:	ce 01       	movw	r24, r28
    1dda:	01 96       	adiw	r24, 0x01	; 1
    1ddc:	6c 01       	movw	r12, r24
    1dde:	8a e3       	ldi	r24, 0x3A	; 58
    1de0:	f6 01       	movw	r30, r12
    1de2:	11 92       	st	Z+, r1
    1de4:	8a 95       	dec	r24
    1de6:	e9 f7       	brne	.-6      	; 0x1de2 <VL53L0X_StaticInit+0x2e>
    1de8:	25 96       	adiw	r28, 0x05	; 5
    1dea:	1f ae       	std	Y+63, r1	; 0x3f
    1dec:	1e ae       	std	Y+62, r1	; 0x3e
    1dee:	25 97       	sbiw	r28, 0x05	; 5
    1df0:	28 96       	adiw	r28, 0x08	; 8
    1df2:	1f ae       	std	Y+63, r1	; 0x3f
    1df4:	28 97       	sbiw	r28, 0x08	; 8
    1df6:	27 96       	adiw	r28, 0x07	; 7
    1df8:	1f ae       	std	Y+63, r1	; 0x3f
    1dfa:	27 97       	sbiw	r28, 0x07	; 7
    1dfc:	23 96       	adiw	r28, 0x03	; 3
    1dfe:	1c ae       	std	Y+60, r1	; 0x3c
    1e00:	1d ae       	std	Y+61, r1	; 0x3d
    1e02:	1e ae       	std	Y+62, r1	; 0x3e
    1e04:	1f ae       	std	Y+63, r1	; 0x3f
    1e06:	23 97       	sbiw	r28, 0x03	; 3
    1e08:	61 e0       	ldi	r22, 0x01	; 1
    1e0a:	c7 01       	movw	r24, r14
    1e0c:	0e 94 71 17 	call	0x2ee2	; 0x2ee2 <VL53L0X_get_info_from_device>
    1e10:	f7 01       	movw	r30, r14
    1e12:	ed 5f       	subi	r30, 0xFD	; 253
    1e14:	fe 4f       	sbci	r31, 0xFE	; 254
    1e16:	20 81       	ld	r18, Z
    1e18:	22 30       	cpi	r18, 0x02	; 2
    1e1a:	90 f4       	brcc	.+36     	; 0x1e40 <VL53L0X_StaticInit+0x8c>
    1e1c:	31 97       	sbiw	r30, 0x01	; 1
    1e1e:	40 81       	ld	r20, Z
    1e20:	50 e0       	ldi	r21, 0x00	; 0
    1e22:	60 e0       	ldi	r22, 0x00	; 0
    1e24:	70 e0       	ldi	r23, 0x00	; 0
    1e26:	21 30       	cpi	r18, 0x01	; 1
    1e28:	31 f4       	brne	.+12     	; 0x1e36 <VL53L0X_StaticInit+0x82>
    1e2a:	41 32       	cpi	r20, 0x21	; 33
    1e2c:	51 05       	cpc	r21, r1
    1e2e:	61 05       	cpc	r22, r1
    1e30:	71 05       	cpc	r23, r1
    1e32:	30 f4       	brcc	.+12     	; 0x1e40 <VL53L0X_StaticInit+0x8c>
    1e34:	0f c0       	rjmp	.+30     	; 0x1e54 <VL53L0X_StaticInit+0xa0>
    1e36:	4d 30       	cpi	r20, 0x0D	; 13
    1e38:	51 05       	cpc	r21, r1
    1e3a:	61 05       	cpc	r22, r1
    1e3c:	71 05       	cpc	r23, r1
    1e3e:	50 f0       	brcs	.+20     	; 0x1e54 <VL53L0X_StaticInit+0xa0>
    1e40:	ae 01       	movw	r20, r28
    1e42:	4a 5b       	subi	r20, 0xBA	; 186
    1e44:	5f 4f       	sbci	r21, 0xFF	; 255
    1e46:	be 01       	movw	r22, r28
    1e48:	61 5c       	subi	r22, 0xC1	; 193
    1e4a:	7f 4f       	sbci	r23, 0xFF	; 255
    1e4c:	c7 01       	movw	r24, r14
    1e4e:	0e 94 dd 14 	call	0x29ba	; 0x29ba <VL53L0X_perform_ref_spad_management>
    1e52:	03 c0       	rjmp	.+6      	; 0x1e5a <VL53L0X_StaticInit+0xa6>
    1e54:	c7 01       	movw	r24, r14
    1e56:	0e 94 bf 12 	call	0x257e	; 0x257e <VL53L0X_set_reference_spads>
    1e5a:	81 11       	cpse	r24, r1
    1e5c:	ca c0       	rjmp	.+404    	; 0x1ff2 <VL53L0X_StaticInit+0x23e>
    1e5e:	f7 01       	movw	r30, r14
    1e60:	e8 5c       	subi	r30, 0xC8	; 200
    1e62:	fe 4f       	sbci	r31, 0xFE	; 254
    1e64:	80 81       	ld	r24, Z
    1e66:	81 11       	cpse	r24, r1
    1e68:	04 c0       	rjmp	.+8      	; 0x1e72 <VL53L0X_StaticInit+0xbe>
    1e6a:	32 97       	sbiw	r30, 0x02	; 2
    1e6c:	60 81       	ld	r22, Z
    1e6e:	71 81       	ldd	r23, Z+1	; 0x01
    1e70:	02 c0       	rjmp	.+4      	; 0x1e76 <VL53L0X_StaticInit+0xc2>
    1e72:	68 eb       	ldi	r22, 0xB8	; 184
    1e74:	72 e0       	ldi	r23, 0x02	; 2
    1e76:	c7 01       	movw	r24, r14
    1e78:	0e 94 3f 1f 	call	0x3e7e	; 0x3e7e <VL53L0X_load_tuning_settings>
    1e7c:	81 11       	cpse	r24, r1
    1e7e:	b9 c0       	rjmp	.+370    	; 0x1ff2 <VL53L0X_StaticInit+0x23e>
    1e80:	00 e0       	ldi	r16, 0x00	; 0
    1e82:	24 e0       	ldi	r18, 0x04	; 4
    1e84:	40 e0       	ldi	r20, 0x00	; 0
    1e86:	60 e0       	ldi	r22, 0x00	; 0
    1e88:	c7 01       	movw	r24, r14
    1e8a:	0e 94 2b 0e 	call	0x1c56	; 0x1c56 <VL53L0X_SetGpioConfig>
    1e8e:	81 11       	cpse	r24, r1
    1e90:	b0 c0       	rjmp	.+352    	; 0x1ff2 <VL53L0X_StaticInit+0x23e>
    1e92:	41 e0       	ldi	r20, 0x01	; 1
    1e94:	6f ef       	ldi	r22, 0xFF	; 255
    1e96:	c7 01       	movw	r24, r14
    1e98:	0e 94 c8 22 	call	0x4590	; 0x4590 <VL53L0X_WrByte>
    1e9c:	18 2f       	mov	r17, r24
    1e9e:	ae 01       	movw	r20, r28
    1ea0:	4d 5b       	subi	r20, 0xBD	; 189
    1ea2:	5f 4f       	sbci	r21, 0xFF	; 255
    1ea4:	64 e8       	ldi	r22, 0x84	; 132
    1ea6:	c7 01       	movw	r24, r14
    1ea8:	0e 94 19 23 	call	0x4632	; 0x4632 <VL53L0X_RdWord>
    1eac:	18 2b       	or	r17, r24
    1eae:	40 e0       	ldi	r20, 0x00	; 0
    1eb0:	6f ef       	ldi	r22, 0xFF	; 255
    1eb2:	c7 01       	movw	r24, r14
    1eb4:	0e 94 c8 22 	call	0x4590	; 0x4590 <VL53L0X_WrByte>
    1eb8:	81 2b       	or	r24, r17
    1eba:	09 f0       	breq	.+2      	; 0x1ebe <VL53L0X_StaticInit+0x10a>
    1ebc:	9a c0       	rjmp	.+308    	; 0x1ff2 <VL53L0X_StaticInit+0x23e>
    1ebe:	f7 01       	movw	r30, r14
    1ec0:	e8 53       	subi	r30, 0x38	; 56
    1ec2:	ff 4f       	sbci	r31, 0xFF	; 255
    1ec4:	25 96       	adiw	r28, 0x05	; 5
    1ec6:	8e ad       	ldd	r24, Y+62	; 0x3e
    1ec8:	9f ad       	ldd	r25, Y+63	; 0x3f
    1eca:	25 97       	sbiw	r28, 0x05	; 5
    1ecc:	24 e0       	ldi	r18, 0x04	; 4
    1ece:	88 0f       	add	r24, r24
    1ed0:	99 1f       	adc	r25, r25
    1ed2:	2a 95       	dec	r18
    1ed4:	e1 f7       	brne	.-8      	; 0x1ece <VL53L0X_StaticInit+0x11a>
    1ed6:	a0 e0       	ldi	r26, 0x00	; 0
    1ed8:	b0 e0       	ldi	r27, 0x00	; 0
    1eda:	80 83       	st	Z, r24
    1edc:	91 83       	std	Z+1, r25	; 0x01
    1ede:	a2 83       	std	Z+2, r26	; 0x02
    1ee0:	b3 83       	std	Z+3, r27	; 0x03
    1ee2:	b6 01       	movw	r22, r12
    1ee4:	c7 01       	movw	r24, r14
    1ee6:	0e 94 ca 09 	call	0x1394	; 0x1394 <VL53L0X_GetDeviceParameters>
    1eea:	81 11       	cpse	r24, r1
    1eec:	82 c0       	rjmp	.+260    	; 0x1ff2 <VL53L0X_StaticInit+0x23e>
    1eee:	be 01       	movw	r22, r28
    1ef0:	69 5b       	subi	r22, 0xB9	; 185
    1ef2:	7f 4f       	sbci	r23, 0xFF	; 255
    1ef4:	c7 01       	movw	r24, r14
    1ef6:	0e 94 95 06 	call	0xd2a	; 0xd2a <VL53L0X_GetFractionEnable>
    1efa:	81 11       	cpse	r24, r1
    1efc:	7a c0       	rjmp	.+244    	; 0x1ff2 <VL53L0X_StaticInit+0x23e>
    1efe:	28 96       	adiw	r28, 0x08	; 8
    1f00:	8f ad       	ldd	r24, Y+63	; 0x3f
    1f02:	28 97       	sbiw	r28, 0x08	; 8
    1f04:	f7 01       	movw	r30, r14
    1f06:	e2 5e       	subi	r30, 0xE2	; 226
    1f08:	fe 4f       	sbci	r31, 0xFE	; 254
    1f0a:	80 83       	st	Z, r24
    1f0c:	8a e3       	ldi	r24, 0x3A	; 58
    1f0e:	f6 01       	movw	r30, r12
    1f10:	d7 01       	movw	r26, r14
    1f12:	50 96       	adiw	r26, 0x10	; 16
    1f14:	01 90       	ld	r0, Z+
    1f16:	0d 92       	st	X+, r0
    1f18:	8a 95       	dec	r24
    1f1a:	e1 f7       	brne	.-8      	; 0x1f14 <VL53L0X_StaticInit+0x160>
    1f1c:	ae 01       	movw	r20, r28
    1f1e:	49 5b       	subi	r20, 0xB9	; 185
    1f20:	5f 4f       	sbci	r21, 0xFF	; 255
    1f22:	61 e0       	ldi	r22, 0x01	; 1
    1f24:	c7 01       	movw	r24, r14
    1f26:	0e 94 0d 23 	call	0x461a	; 0x461a <VL53L0X_RdByte>
    1f2a:	81 11       	cpse	r24, r1
    1f2c:	62 c0       	rjmp	.+196    	; 0x1ff2 <VL53L0X_StaticInit+0x23e>
    1f2e:	28 96       	adiw	r28, 0x08	; 8
    1f30:	8f ad       	ldd	r24, Y+63	; 0x3f
    1f32:	28 97       	sbiw	r28, 0x08	; 8
    1f34:	f7 01       	movw	r30, r14
    1f36:	e3 5e       	subi	r30, 0xE3	; 227
    1f38:	fe 4f       	sbci	r31, 0xFE	; 254
    1f3a:	80 83       	st	Z, r24
    1f3c:	40 e0       	ldi	r20, 0x00	; 0
    1f3e:	60 e0       	ldi	r22, 0x00	; 0
    1f40:	c7 01       	movw	r24, r14
    1f42:	0e 94 a8 06 	call	0xd50	; 0xd50 <VL53L0X_SetSequenceStepEnable>
    1f46:	81 11       	cpse	r24, r1
    1f48:	54 c0       	rjmp	.+168    	; 0x1ff2 <VL53L0X_StaticInit+0x23e>
    1f4a:	40 e0       	ldi	r20, 0x00	; 0
    1f4c:	62 e0       	ldi	r22, 0x02	; 2
    1f4e:	c7 01       	movw	r24, r14
    1f50:	0e 94 a8 06 	call	0xd50	; 0xd50 <VL53L0X_SetSequenceStepEnable>
    1f54:	81 11       	cpse	r24, r1
    1f56:	4d c0       	rjmp	.+154    	; 0x1ff2 <VL53L0X_StaticInit+0x23e>
    1f58:	83 e0       	ldi	r24, 0x03	; 3
    1f5a:	f7 01       	movw	r30, r14
    1f5c:	e1 5e       	subi	r30, 0xE1	; 225
    1f5e:	fe 4f       	sbci	r31, 0xFE	; 254
    1f60:	80 83       	st	Z, r24
    1f62:	ae 01       	movw	r20, r28
    1f64:	4b 5b       	subi	r20, 0xBB	; 187
    1f66:	5f 4f       	sbci	r21, 0xFF	; 255
    1f68:	60 e0       	ldi	r22, 0x00	; 0
    1f6a:	c7 01       	movw	r24, r14
    1f6c:	0e 94 67 1d 	call	0x3ace	; 0x3ace <VL53L0X_get_vcsel_pulse_period>
    1f70:	81 11       	cpse	r24, r1
    1f72:	3f c0       	rjmp	.+126    	; 0x1ff2 <VL53L0X_StaticInit+0x23e>
    1f74:	26 96       	adiw	r28, 0x06	; 6
    1f76:	8f ad       	ldd	r24, Y+63	; 0x3f
    1f78:	26 97       	sbiw	r28, 0x06	; 6
    1f7a:	f7 01       	movw	r30, r14
    1f7c:	e8 52       	subi	r30, 0x28	; 40
    1f7e:	ff 4f       	sbci	r31, 0xFF	; 255
    1f80:	80 83       	st	Z, r24
    1f82:	ae 01       	movw	r20, r28
    1f84:	4b 5b       	subi	r20, 0xBB	; 187
    1f86:	5f 4f       	sbci	r21, 0xFF	; 255
    1f88:	61 e0       	ldi	r22, 0x01	; 1
    1f8a:	c7 01       	movw	r24, r14
    1f8c:	0e 94 67 1d 	call	0x3ace	; 0x3ace <VL53L0X_get_vcsel_pulse_period>
    1f90:	81 11       	cpse	r24, r1
    1f92:	2f c0       	rjmp	.+94     	; 0x1ff2 <VL53L0X_StaticInit+0x23e>
    1f94:	26 96       	adiw	r28, 0x06	; 6
    1f96:	8f ad       	ldd	r24, Y+63	; 0x3f
    1f98:	26 97       	sbiw	r28, 0x06	; 6
    1f9a:	f7 01       	movw	r30, r14
    1f9c:	ed 52       	subi	r30, 0x2D	; 45
    1f9e:	ff 4f       	sbci	r31, 0xFF	; 255
    1fa0:	80 83       	st	Z, r24
    1fa2:	ae 01       	movw	r20, r28
    1fa4:	45 5c       	subi	r20, 0xC5	; 197
    1fa6:	5f 4f       	sbci	r21, 0xFF	; 255
    1fa8:	63 e0       	ldi	r22, 0x03	; 3
    1faa:	c7 01       	movw	r24, r14
    1fac:	0e 94 46 07 	call	0xe8c	; 0xe8c <VL53L0X_GetSequenceStepTimeout>
    1fb0:	81 11       	cpse	r24, r1
    1fb2:	1f c0       	rjmp	.+62     	; 0x1ff2 <VL53L0X_StaticInit+0x23e>
    1fb4:	8b ad       	ldd	r24, Y+59	; 0x3b
    1fb6:	9c ad       	ldd	r25, Y+60	; 0x3c
    1fb8:	ad ad       	ldd	r26, Y+61	; 0x3d
    1fba:	be ad       	ldd	r27, Y+62	; 0x3e
    1fbc:	f7 01       	movw	r30, r14
    1fbe:	ec 52       	subi	r30, 0x2C	; 44
    1fc0:	ff 4f       	sbci	r31, 0xFF	; 255
    1fc2:	80 83       	st	Z, r24
    1fc4:	91 83       	std	Z+1, r25	; 0x01
    1fc6:	a2 83       	std	Z+2, r26	; 0x02
    1fc8:	b3 83       	std	Z+3, r27	; 0x03
    1fca:	ae 01       	movw	r20, r28
    1fcc:	45 5c       	subi	r20, 0xC5	; 197
    1fce:	5f 4f       	sbci	r21, 0xFF	; 255
    1fd0:	64 e0       	ldi	r22, 0x04	; 4
    1fd2:	c7 01       	movw	r24, r14
    1fd4:	0e 94 46 07 	call	0xe8c	; 0xe8c <VL53L0X_GetSequenceStepTimeout>
    1fd8:	81 11       	cpse	r24, r1
    1fda:	0b c0       	rjmp	.+22     	; 0x1ff2 <VL53L0X_StaticInit+0x23e>
    1fdc:	f7 01       	movw	r30, r14
    1fde:	e1 53       	subi	r30, 0x31	; 49
    1fe0:	ff 4f       	sbci	r31, 0xFF	; 255
    1fe2:	4b ad       	ldd	r20, Y+59	; 0x3b
    1fe4:	5c ad       	ldd	r21, Y+60	; 0x3c
    1fe6:	6d ad       	ldd	r22, Y+61	; 0x3d
    1fe8:	7e ad       	ldd	r23, Y+62	; 0x3e
    1fea:	40 83       	st	Z, r20
    1fec:	51 83       	std	Z+1, r21	; 0x01
    1fee:	62 83       	std	Z+2, r22	; 0x02
    1ff0:	73 83       	std	Z+3, r23	; 0x03
    1ff2:	c9 5b       	subi	r28, 0xB9	; 185
    1ff4:	df 4f       	sbci	r29, 0xFF	; 255
    1ff6:	0f b6       	in	r0, 0x3f	; 63
    1ff8:	f8 94       	cli
    1ffa:	de bf       	out	0x3e, r29	; 62
    1ffc:	0f be       	out	0x3f, r0	; 63
    1ffe:	cd bf       	out	0x3d, r28	; 61
    2000:	df 91       	pop	r29
    2002:	cf 91       	pop	r28
    2004:	1f 91       	pop	r17
    2006:	0f 91       	pop	r16
    2008:	ff 90       	pop	r15
    200a:	ef 90       	pop	r14
    200c:	df 90       	pop	r13
    200e:	cf 90       	pop	r12
    2010:	08 95       	ret

00002012 <VL53L0X_GetInterruptMaskStatus>:
    2012:	0f 93       	push	r16
    2014:	1f 93       	push	r17
    2016:	cf 93       	push	r28
    2018:	df 93       	push	r29
    201a:	1f 92       	push	r1
    201c:	cd b7       	in	r28, 0x3d	; 61
    201e:	de b7       	in	r29, 0x3e	; 62
    2020:	8b 01       	movw	r16, r22
    2022:	ae 01       	movw	r20, r28
    2024:	4f 5f       	subi	r20, 0xFF	; 255
    2026:	5f 4f       	sbci	r21, 0xFF	; 255
    2028:	63 e1       	ldi	r22, 0x13	; 19
    202a:	0e 94 0d 23 	call	0x461a	; 0x461a <VL53L0X_RdByte>
    202e:	99 81       	ldd	r25, Y+1	; 0x01
    2030:	49 2f       	mov	r20, r25
    2032:	47 70       	andi	r20, 0x07	; 7
    2034:	50 e0       	ldi	r21, 0x00	; 0
    2036:	60 e0       	ldi	r22, 0x00	; 0
    2038:	70 e0       	ldi	r23, 0x00	; 0
    203a:	f8 01       	movw	r30, r16
    203c:	40 83       	st	Z, r20
    203e:	51 83       	std	Z+1, r21	; 0x01
    2040:	62 83       	std	Z+2, r22	; 0x02
    2042:	73 83       	std	Z+3, r23	; 0x03
    2044:	98 71       	andi	r25, 0x18	; 24
    2046:	09 f0       	breq	.+2      	; 0x204a <VL53L0X_GetInterruptMaskStatus+0x38>
    2048:	8a ef       	ldi	r24, 0xFA	; 250
    204a:	0f 90       	pop	r0
    204c:	df 91       	pop	r29
    204e:	cf 91       	pop	r28
    2050:	1f 91       	pop	r17
    2052:	0f 91       	pop	r16
    2054:	08 95       	ret

00002056 <VL53L0X_GetMeasurementDataReady>:
    2056:	0f 93       	push	r16
    2058:	1f 93       	push	r17
    205a:	cf 93       	push	r28
    205c:	df 93       	push	r29
    205e:	00 d0       	rcall	.+0      	; 0x2060 <VL53L0X_GetMeasurementDataReady+0xa>
    2060:	00 d0       	rcall	.+0      	; 0x2062 <VL53L0X_GetMeasurementDataReady+0xc>
    2062:	cd b7       	in	r28, 0x3d	; 61
    2064:	de b7       	in	r29, 0x3e	; 62
    2066:	8b 01       	movw	r16, r22
    2068:	fc 01       	movw	r30, r24
    206a:	e2 53       	subi	r30, 0x32	; 50
    206c:	ff 4f       	sbci	r31, 0xFF	; 255
    206e:	20 81       	ld	r18, Z
    2070:	24 30       	cpi	r18, 0x04	; 4
    2072:	79 f4       	brne	.+30     	; 0x2092 <VL53L0X_GetMeasurementDataReady+0x3c>
    2074:	be 01       	movw	r22, r28
    2076:	6f 5f       	subi	r22, 0xFF	; 255
    2078:	7f 4f       	sbci	r23, 0xFF	; 255
    207a:	0e 94 09 10 	call	0x2012	; 0x2012 <VL53L0X_GetInterruptMaskStatus>
    207e:	49 81       	ldd	r20, Y+1	; 0x01
    2080:	5a 81       	ldd	r21, Y+2	; 0x02
    2082:	6b 81       	ldd	r22, Y+3	; 0x03
    2084:	7c 81       	ldd	r23, Y+4	; 0x04
    2086:	44 30       	cpi	r20, 0x04	; 4
    2088:	51 05       	cpc	r21, r1
    208a:	61 05       	cpc	r22, r1
    208c:	71 05       	cpc	r23, r1
    208e:	81 f4       	brne	.+32     	; 0x20b0 <VL53L0X_GetMeasurementDataReady+0x5a>
    2090:	0b c0       	rjmp	.+22     	; 0x20a8 <VL53L0X_GetMeasurementDataReady+0x52>
    2092:	ae 01       	movw	r20, r28
    2094:	4f 5f       	subi	r20, 0xFF	; 255
    2096:	5f 4f       	sbci	r21, 0xFF	; 255
    2098:	64 e1       	ldi	r22, 0x14	; 20
    209a:	0e 94 0d 23 	call	0x461a	; 0x461a <VL53L0X_RdByte>
    209e:	81 11       	cpse	r24, r1
    20a0:	09 c0       	rjmp	.+18     	; 0x20b4 <VL53L0X_GetMeasurementDataReady+0x5e>
    20a2:	99 81       	ldd	r25, Y+1	; 0x01
    20a4:	90 ff       	sbrs	r25, 0
    20a6:	04 c0       	rjmp	.+8      	; 0x20b0 <VL53L0X_GetMeasurementDataReady+0x5a>
    20a8:	91 e0       	ldi	r25, 0x01	; 1
    20aa:	f8 01       	movw	r30, r16
    20ac:	90 83       	st	Z, r25
    20ae:	02 c0       	rjmp	.+4      	; 0x20b4 <VL53L0X_GetMeasurementDataReady+0x5e>
    20b0:	f8 01       	movw	r30, r16
    20b2:	10 82       	st	Z, r1
    20b4:	0f 90       	pop	r0
    20b6:	0f 90       	pop	r0
    20b8:	0f 90       	pop	r0
    20ba:	0f 90       	pop	r0
    20bc:	df 91       	pop	r29
    20be:	cf 91       	pop	r28
    20c0:	1f 91       	pop	r17
    20c2:	0f 91       	pop	r16
    20c4:	08 95       	ret

000020c6 <VL53L0X_PerformRefSpadManagement>:
    20c6:	0c 94 dd 14 	jmp	0x29ba	; 0x29ba <VL53L0X_perform_ref_spad_management>

000020ca <VL53L0X_get_offset_calibration_data_micro_meter>:
    20ca:	0f 93       	push	r16
    20cc:	1f 93       	push	r17
    20ce:	cf 93       	push	r28
    20d0:	df 93       	push	r29
    20d2:	00 d0       	rcall	.+0      	; 0x20d4 <VL53L0X_get_offset_calibration_data_micro_meter+0xa>
    20d4:	cd b7       	in	r28, 0x3d	; 61
    20d6:	de b7       	in	r29, 0x3e	; 62
    20d8:	8b 01       	movw	r16, r22
    20da:	ae 01       	movw	r20, r28
    20dc:	4f 5f       	subi	r20, 0xFF	; 255
    20de:	5f 4f       	sbci	r21, 0xFF	; 255
    20e0:	68 e2       	ldi	r22, 0x28	; 40
    20e2:	0e 94 19 23 	call	0x4632	; 0x4632 <VL53L0X_RdWord>
    20e6:	81 11       	cpse	r24, r1
    20e8:	17 c0       	rjmp	.+46     	; 0x2118 <VL53L0X_get_offset_calibration_data_micro_meter+0x4e>
    20ea:	29 81       	ldd	r18, Y+1	; 0x01
    20ec:	3a 81       	ldd	r19, Y+2	; 0x02
    20ee:	3f 70       	andi	r19, 0x0F	; 15
    20f0:	21 15       	cp	r18, r1
    20f2:	98 e0       	ldi	r25, 0x08	; 8
    20f4:	39 07       	cpc	r19, r25
    20f6:	08 f0       	brcs	.+2      	; 0x20fa <VL53L0X_get_offset_calibration_data_micro_meter+0x30>
    20f8:	30 51       	subi	r19, 0x10	; 16
    20fa:	9a ef       	ldi	r25, 0xFA	; 250
    20fc:	92 9f       	mul	r25, r18
    20fe:	a0 01       	movw	r20, r0
    2100:	93 9f       	mul	r25, r19
    2102:	50 0d       	add	r21, r0
    2104:	11 24       	eor	r1, r1
    2106:	05 2e       	mov	r0, r21
    2108:	00 0c       	add	r0, r0
    210a:	66 0b       	sbc	r22, r22
    210c:	77 0b       	sbc	r23, r23
    210e:	f8 01       	movw	r30, r16
    2110:	40 83       	st	Z, r20
    2112:	51 83       	std	Z+1, r21	; 0x01
    2114:	62 83       	std	Z+2, r22	; 0x02
    2116:	73 83       	std	Z+3, r23	; 0x03
    2118:	0f 90       	pop	r0
    211a:	0f 90       	pop	r0
    211c:	df 91       	pop	r29
    211e:	cf 91       	pop	r28
    2120:	1f 91       	pop	r17
    2122:	0f 91       	pop	r16
    2124:	08 95       	ret

00002126 <_Z18get_next_good_spadPhmmPl>:
    2126:	3f 92       	push	r3
    2128:	4f 92       	push	r4
    212a:	5f 92       	push	r5
    212c:	6f 92       	push	r6
    212e:	7f 92       	push	r7
    2130:	8f 92       	push	r8
    2132:	9f 92       	push	r9
    2134:	af 92       	push	r10
    2136:	bf 92       	push	r11
    2138:	cf 92       	push	r12
    213a:	df 92       	push	r13
    213c:	ef 92       	push	r14
    213e:	ff 92       	push	r15
    2140:	0f 93       	push	r16
    2142:	1f 93       	push	r17
    2144:	cf 93       	push	r28
    2146:	df 93       	push	r29
    2148:	cd b7       	in	r28, 0x3d	; 61
    214a:	de b7       	in	r29, 0x3e	; 62
    214c:	28 97       	sbiw	r28, 0x08	; 8
    214e:	0f b6       	in	r0, 0x3f	; 63
    2150:	f8 94       	cli
    2152:	de bf       	out	0x3e, r29	; 62
    2154:	0f be       	out	0x3f, r0	; 63
    2156:	cd bf       	out	0x3d, r28	; 61
    2158:	9e 83       	std	Y+6, r25	; 0x06
    215a:	8d 83       	std	Y+5, r24	; 0x05
    215c:	f8 86       	std	Y+8, r15	; 0x08
    215e:	ef 82       	std	Y+7, r14	; 0x07
    2160:	cc 24       	eor	r12, r12
    2162:	ca 94       	dec	r12
    2164:	dc 2c       	mov	r13, r12
    2166:	76 01       	movw	r14, r12
    2168:	af 81       	ldd	r26, Y+7	; 0x07
    216a:	b8 85       	ldd	r27, Y+8	; 0x08
    216c:	cd 92       	st	X+, r12
    216e:	dd 92       	st	X+, r13
    2170:	ed 92       	st	X+, r14
    2172:	fc 92       	st	X, r15
    2174:	13 97       	sbiw	r26, 0x03	; 3
    2176:	28 01       	movw	r4, r16
    2178:	39 01       	movw	r6, r18
    217a:	93 e0       	ldi	r25, 0x03	; 3
    217c:	76 94       	lsr	r7
    217e:	67 94       	ror	r6
    2180:	57 94       	ror	r5
    2182:	47 94       	ror	r4
    2184:	9a 95       	dec	r25
    2186:	d1 f7       	brne	.-12     	; 0x217c <_Z18get_next_good_spadPhmmPl+0x56>
    2188:	d9 01       	movw	r26, r18
    218a:	c8 01       	movw	r24, r16
    218c:	87 70       	andi	r24, 0x07	; 7
    218e:	99 27       	eor	r25, r25
    2190:	aa 27       	eor	r26, r26
    2192:	bb 27       	eor	r27, r27
    2194:	89 83       	std	Y+1, r24	; 0x01
    2196:	9a 83       	std	Y+2, r25	; 0x02
    2198:	ab 83       	std	Y+3, r26	; 0x03
    219a:	bc 83       	std	Y+4, r27	; 0x04
    219c:	53 01       	movw	r10, r6
    219e:	42 01       	movw	r8, r4
    21a0:	23 e0       	ldi	r18, 0x03	; 3
    21a2:	88 0c       	add	r8, r8
    21a4:	99 1c       	adc	r9, r9
    21a6:	aa 1c       	adc	r10, r10
    21a8:	bb 1c       	adc	r11, r11
    21aa:	2a 95       	dec	r18
    21ac:	d1 f7       	brne	.-12     	; 0x21a2 <_Z18get_next_good_spadPhmmPl+0x7c>
    21ae:	73 01       	movw	r14, r6
    21b0:	62 01       	movw	r12, r4
    21b2:	31 2c       	mov	r3, r1
    21b4:	c4 16       	cp	r12, r20
    21b6:	d5 06       	cpc	r13, r21
    21b8:	e6 06       	cpc	r14, r22
    21ba:	f7 06       	cpc	r15, r23
    21bc:	08 f0       	brcs	.+2      	; 0x21c0 <_Z18get_next_good_spadPhmmPl+0x9a>
    21be:	40 c0       	rjmp	.+128    	; 0x2240 <_Z18get_next_good_spadPhmmPl+0x11a>
    21c0:	31 10       	cpse	r3, r1
    21c2:	3e c0       	rjmp	.+124    	; 0x2240 <_Z18get_next_good_spadPhmmPl+0x11a>
    21c4:	ed 81       	ldd	r30, Y+5	; 0x05
    21c6:	fe 81       	ldd	r31, Y+6	; 0x06
    21c8:	ec 0d       	add	r30, r12
    21ca:	fd 1d       	adc	r31, r13
    21cc:	80 81       	ld	r24, Z
    21ce:	c4 14       	cp	r12, r4
    21d0:	d5 04       	cpc	r13, r5
    21d2:	e6 04       	cpc	r14, r6
    21d4:	f7 04       	cpc	r15, r7
    21d6:	61 f4       	brne	.+24     	; 0x21f0 <_Z18get_next_good_spadPhmmPl+0xca>
    21d8:	90 e0       	ldi	r25, 0x00	; 0
    21da:	09 80       	ldd	r0, Y+1	; 0x01
    21dc:	02 c0       	rjmp	.+4      	; 0x21e2 <_Z18get_next_good_spadPhmmPl+0xbc>
    21de:	95 95       	asr	r25
    21e0:	87 95       	ror	r24
    21e2:	0a 94       	dec	r0
    21e4:	e2 f7       	brpl	.-8      	; 0x21de <_Z18get_next_good_spadPhmmPl+0xb8>
    21e6:	09 81       	ldd	r16, Y+1	; 0x01
    21e8:	1a 81       	ldd	r17, Y+2	; 0x02
    21ea:	2b 81       	ldd	r18, Y+3	; 0x03
    21ec:	3c 81       	ldd	r19, Y+4	; 0x04
    21ee:	03 c0       	rjmp	.+6      	; 0x21f6 <_Z18get_next_good_spadPhmmPl+0xd0>
    21f0:	00 e0       	ldi	r16, 0x00	; 0
    21f2:	10 e0       	ldi	r17, 0x00	; 0
    21f4:	98 01       	movw	r18, r16
    21f6:	80 ff       	sbrs	r24, 0
    21f8:	0e c0       	rjmp	.+28     	; 0x2216 <_Z18get_next_good_spadPhmmPl+0xf0>
    21fa:	08 0d       	add	r16, r8
    21fc:	19 1d       	adc	r17, r9
    21fe:	2a 1d       	adc	r18, r10
    2200:	3b 1d       	adc	r19, r11
    2202:	af 81       	ldd	r26, Y+7	; 0x07
    2204:	b8 85       	ldd	r27, Y+8	; 0x08
    2206:	0d 93       	st	X+, r16
    2208:	1d 93       	st	X+, r17
    220a:	2d 93       	st	X+, r18
    220c:	3c 93       	st	X, r19
    220e:	13 97       	sbiw	r26, 0x03	; 3
    2210:	33 24       	eor	r3, r3
    2212:	33 94       	inc	r3
    2214:	0a c0       	rjmp	.+20     	; 0x222a <_Z18get_next_good_spadPhmmPl+0x104>
    2216:	86 95       	lsr	r24
    2218:	0f 5f       	subi	r16, 0xFF	; 255
    221a:	1f 4f       	sbci	r17, 0xFF	; 255
    221c:	2f 4f       	sbci	r18, 0xFF	; 255
    221e:	3f 4f       	sbci	r19, 0xFF	; 255
    2220:	08 30       	cpi	r16, 0x08	; 8
    2222:	11 05       	cpc	r17, r1
    2224:	21 05       	cpc	r18, r1
    2226:	31 05       	cpc	r19, r1
    2228:	31 f7       	brne	.-52     	; 0x21f6 <_Z18get_next_good_spadPhmmPl+0xd0>
    222a:	bf ef       	ldi	r27, 0xFF	; 255
    222c:	cb 1a       	sub	r12, r27
    222e:	db 0a       	sbc	r13, r27
    2230:	eb 0a       	sbc	r14, r27
    2232:	fb 0a       	sbc	r15, r27
    2234:	e8 e0       	ldi	r30, 0x08	; 8
    2236:	8e 0e       	add	r8, r30
    2238:	91 1c       	adc	r9, r1
    223a:	a1 1c       	adc	r10, r1
    223c:	b1 1c       	adc	r11, r1
    223e:	ba cf       	rjmp	.-140    	; 0x21b4 <_Z18get_next_good_spadPhmmPl+0x8e>
    2240:	28 96       	adiw	r28, 0x08	; 8
    2242:	0f b6       	in	r0, 0x3f	; 63
    2244:	f8 94       	cli
    2246:	de bf       	out	0x3e, r29	; 62
    2248:	0f be       	out	0x3f, r0	; 63
    224a:	cd bf       	out	0x3d, r28	; 61
    224c:	df 91       	pop	r29
    224e:	cf 91       	pop	r28
    2250:	1f 91       	pop	r17
    2252:	0f 91       	pop	r16
    2254:	ff 90       	pop	r15
    2256:	ef 90       	pop	r14
    2258:	df 90       	pop	r13
    225a:	cf 90       	pop	r12
    225c:	bf 90       	pop	r11
    225e:	af 90       	pop	r10
    2260:	9f 90       	pop	r9
    2262:	8f 90       	pop	r8
    2264:	7f 90       	pop	r7
    2266:	6f 90       	pop	r6
    2268:	5f 90       	pop	r5
    226a:	4f 90       	pop	r4
    226c:	3f 90       	pop	r3
    226e:	08 95       	ret

00002270 <_Z11is_aperturem>:
    2270:	dc 01       	movw	r26, r24
    2272:	cb 01       	movw	r24, r22
    2274:	26 e0       	ldi	r18, 0x06	; 6
    2276:	b6 95       	lsr	r27
    2278:	a7 95       	ror	r26
    227a:	97 95       	ror	r25
    227c:	87 95       	ror	r24
    227e:	2a 95       	dec	r18
    2280:	d1 f7       	brne	.-12     	; 0x2276 <_Z11is_aperturem+0x6>
    2282:	bc 01       	movw	r22, r24
    2284:	66 0f       	add	r22, r22
    2286:	77 1f       	adc	r23, r23
    2288:	66 0f       	add	r22, r22
    228a:	77 1f       	adc	r23, r23
    228c:	fb 01       	movw	r30, r22
    228e:	e5 55       	subi	r30, 0x55	; 85
    2290:	fc 4f       	sbci	r31, 0xFC	; 252
    2292:	81 e0       	ldi	r24, 0x01	; 1
    2294:	40 81       	ld	r20, Z
    2296:	51 81       	ldd	r21, Z+1	; 0x01
    2298:	62 81       	ldd	r22, Z+2	; 0x02
    229a:	73 81       	ldd	r23, Z+3	; 0x03
    229c:	45 2b       	or	r20, r21
    229e:	46 2b       	or	r20, r22
    22a0:	47 2b       	or	r20, r23
    22a2:	09 f4       	brne	.+2      	; 0x22a6 <_Z11is_aperturem+0x36>
    22a4:	80 e0       	ldi	r24, 0x00	; 0
    22a6:	08 95       	ret

000022a8 <_Z15enable_spad_bitPhmm>:
    22a8:	cf 92       	push	r12
    22aa:	df 92       	push	r13
    22ac:	ef 92       	push	r14
    22ae:	ff 92       	push	r15
    22b0:	0f 93       	push	r16
    22b2:	1f 93       	push	r17
    22b4:	68 01       	movw	r12, r16
    22b6:	79 01       	movw	r14, r18
    22b8:	e3 e0       	ldi	r30, 0x03	; 3
    22ba:	f6 94       	lsr	r15
    22bc:	e7 94       	ror	r14
    22be:	d7 94       	ror	r13
    22c0:	c7 94       	ror	r12
    22c2:	ea 95       	dec	r30
    22c4:	d1 f7       	brne	.-12     	; 0x22ba <_Z15enable_spad_bitPhmm+0x12>
    22c6:	07 70       	andi	r16, 0x07	; 7
    22c8:	11 27       	eor	r17, r17
    22ca:	22 27       	eor	r18, r18
    22cc:	33 27       	eor	r19, r19
    22ce:	c4 16       	cp	r12, r20
    22d0:	d5 06       	cpc	r13, r21
    22d2:	e6 06       	cpc	r14, r22
    22d4:	f7 06       	cpc	r15, r23
    22d6:	70 f4       	brcc	.+28     	; 0x22f4 <_Z15enable_spad_bitPhmm+0x4c>
    22d8:	fc 01       	movw	r30, r24
    22da:	ec 0d       	add	r30, r12
    22dc:	fd 1d       	adc	r31, r13
    22de:	81 e0       	ldi	r24, 0x01	; 1
    22e0:	90 e0       	ldi	r25, 0x00	; 0
    22e2:	01 c0       	rjmp	.+2      	; 0x22e6 <_Z15enable_spad_bitPhmm+0x3e>
    22e4:	88 0f       	add	r24, r24
    22e6:	0a 95       	dec	r16
    22e8:	ea f7       	brpl	.-6      	; 0x22e4 <_Z15enable_spad_bitPhmm+0x3c>
    22ea:	90 81       	ld	r25, Z
    22ec:	89 2b       	or	r24, r25
    22ee:	80 83       	st	Z, r24
    22f0:	80 e0       	ldi	r24, 0x00	; 0
    22f2:	01 c0       	rjmp	.+2      	; 0x22f6 <_Z15enable_spad_bitPhmm+0x4e>
    22f4:	8e ec       	ldi	r24, 0xCE	; 206
    22f6:	1f 91       	pop	r17
    22f8:	0f 91       	pop	r16
    22fa:	ff 90       	pop	r15
    22fc:	ef 90       	pop	r14
    22fe:	df 90       	pop	r13
    2300:	cf 90       	pop	r12
    2302:	08 95       	ret

00002304 <_Z16set_ref_spad_mapP13VL53L0X_Dev_tPh>:
    2304:	0f 93       	push	r16
    2306:	1f 93       	push	r17
    2308:	ab 01       	movw	r20, r22
    230a:	06 e0       	ldi	r16, 0x06	; 6
    230c:	10 e0       	ldi	r17, 0x00	; 0
    230e:	20 e0       	ldi	r18, 0x00	; 0
    2310:	30 e0       	ldi	r19, 0x00	; 0
    2312:	60 eb       	ldi	r22, 0xB0	; 176
    2314:	0e 94 96 22 	call	0x452c	; 0x452c <VL53L0X_WriteMulti>
    2318:	1f 91       	pop	r17
    231a:	0f 91       	pop	r16
    231c:	08 95       	ret

0000231e <_Z16get_ref_spad_mapP13VL53L0X_Dev_tPh>:
    231e:	0f 93       	push	r16
    2320:	1f 93       	push	r17
    2322:	ab 01       	movw	r20, r22
    2324:	06 e0       	ldi	r16, 0x06	; 6
    2326:	10 e0       	ldi	r17, 0x00	; 0
    2328:	20 e0       	ldi	r18, 0x00	; 0
    232a:	30 e0       	ldi	r19, 0x00	; 0
    232c:	60 eb       	ldi	r22, 0xB0	; 176
    232e:	0e 94 af 22 	call	0x455e	; 0x455e <VL53L0X_ReadMulti>
    2332:	1f 91       	pop	r17
    2334:	0f 91       	pop	r16
    2336:	08 95       	ret

00002338 <_Z16enable_ref_spadsP13VL53L0X_Dev_thPhS1_mmmmPm>:
    2338:	2f 92       	push	r2
    233a:	3f 92       	push	r3
    233c:	4f 92       	push	r4
    233e:	5f 92       	push	r5
    2340:	6f 92       	push	r6
    2342:	7f 92       	push	r7
    2344:	9f 92       	push	r9
    2346:	af 92       	push	r10
    2348:	bf 92       	push	r11
    234a:	cf 92       	push	r12
    234c:	df 92       	push	r13
    234e:	ef 92       	push	r14
    2350:	ff 92       	push	r15
    2352:	0f 93       	push	r16
    2354:	1f 93       	push	r17
    2356:	cf 93       	push	r28
    2358:	df 93       	push	r29
    235a:	cd b7       	in	r28, 0x3d	; 61
    235c:	de b7       	in	r29, 0x3e	; 62
    235e:	66 97       	sbiw	r28, 0x16	; 22
    2360:	0f b6       	in	r0, 0x3f	; 63
    2362:	f8 94       	cli
    2364:	de bf       	out	0x3e, r29	; 62
    2366:	0f be       	out	0x3f, r0	; 63
    2368:	cd bf       	out	0x3d, r28	; 61
    236a:	9c 8b       	std	Y+20, r25	; 0x14
    236c:	8b 8b       	std	Y+19, r24	; 0x13
    236e:	96 2e       	mov	r9, r22
    2370:	5e 8b       	std	Y+22, r21	; 0x16
    2372:	4d 8b       	std	Y+21, r20	; 0x15
    2374:	39 01       	movw	r6, r18
    2376:	17 01       	movw	r2, r14
    2378:	28 01       	movw	r4, r16
    237a:	2a a5       	ldd	r18, Y+42	; 0x2a
    237c:	3b a5       	ldd	r19, Y+43	; 0x2b
    237e:	4c a5       	ldd	r20, Y+44	; 0x2c
    2380:	5d a5       	ldd	r21, Y+45	; 0x2d
    2382:	2f 83       	std	Y+7, r18	; 0x07
    2384:	38 87       	std	Y+8, r19	; 0x08
    2386:	49 87       	std	Y+9, r20	; 0x09
    2388:	5a 87       	std	Y+10, r21	; 0x0a
    238a:	1f 86       	std	Y+15, r1	; 0x0f
    238c:	18 8a       	std	Y+16, r1	; 0x10
    238e:	19 8a       	std	Y+17, r1	; 0x11
    2390:	1a 8a       	std	Y+18, r1	; 0x12
    2392:	8f 85       	ldd	r24, Y+15	; 0x0f
    2394:	98 89       	ldd	r25, Y+16	; 0x10
    2396:	a9 89       	ldd	r26, Y+17	; 0x11
    2398:	ba 89       	ldd	r27, Y+18	; 0x12
    239a:	2e a5       	ldd	r18, Y+46	; 0x2e
    239c:	3f a5       	ldd	r19, Y+47	; 0x2f
    239e:	48 a9       	ldd	r20, Y+48	; 0x30
    23a0:	59 a9       	ldd	r21, Y+49	; 0x31
    23a2:	82 17       	cp	r24, r18
    23a4:	93 07       	cpc	r25, r19
    23a6:	a4 07       	cpc	r26, r20
    23a8:	b5 07       	cpc	r27, r21
    23aa:	09 f4       	brne	.+2      	; 0x23ae <_Z16enable_ref_spadsP13VL53L0X_Dev_thPhS1_mmmmPm+0x76>
    23ac:	47 c0       	rjmp	.+142    	; 0x243c <_Z16enable_ref_spadsP13VL53L0X_Dev_thPhS1_mmmmPm+0x104>
    23ae:	ae 01       	movw	r20, r28
    23b0:	49 5f       	subi	r20, 0xF9	; 249
    23b2:	5f 4f       	sbci	r21, 0xFF	; 255
    23b4:	7a 01       	movw	r14, r20
    23b6:	0a a5       	ldd	r16, Y+42	; 0x2a
    23b8:	1b a5       	ldd	r17, Y+43	; 0x2b
    23ba:	2c a5       	ldd	r18, Y+44	; 0x2c
    23bc:	3d a5       	ldd	r19, Y+45	; 0x2d
    23be:	b2 01       	movw	r22, r4
    23c0:	a1 01       	movw	r20, r2
    23c2:	8d 89       	ldd	r24, Y+21	; 0x15
    23c4:	9e 89       	ldd	r25, Y+22	; 0x16
    23c6:	0e 94 93 10 	call	0x2126	; 0x2126 <_Z18get_next_good_spadPhmmPl>
    23ca:	8f 81       	ldd	r24, Y+7	; 0x07
    23cc:	98 85       	ldd	r25, Y+8	; 0x08
    23ce:	a9 85       	ldd	r26, Y+9	; 0x09
    23d0:	ba 85       	ldd	r27, Y+10	; 0x0a
    23d2:	8b 87       	std	Y+11, r24	; 0x0b
    23d4:	9c 87       	std	Y+12, r25	; 0x0c
    23d6:	ad 87       	std	Y+13, r26	; 0x0d
    23d8:	be 87       	std	Y+14, r27	; 0x0e
    23da:	8f 3f       	cpi	r24, 0xFF	; 255
    23dc:	2f ef       	ldi	r18, 0xFF	; 255
    23de:	92 07       	cpc	r25, r18
    23e0:	a2 07       	cpc	r26, r18
    23e2:	b2 07       	cpc	r27, r18
    23e4:	69 f1       	breq	.+90     	; 0x2440 <_Z16enable_ref_spadsP13VL53L0X_Dev_thPhS1_mmmmPm+0x108>
    23e6:	bc 01       	movw	r22, r24
    23e8:	cd 01       	movw	r24, r26
    23ea:	6a 0d       	add	r22, r10
    23ec:	7b 1d       	adc	r23, r11
    23ee:	8c 1d       	adc	r24, r12
    23f0:	9d 1d       	adc	r25, r13
    23f2:	0e 94 38 11 	call	0x2270	; 0x2270 <_Z11is_aperturem>
    23f6:	89 11       	cpse	r24, r9
    23f8:	23 c0       	rjmp	.+70     	; 0x2440 <_Z16enable_ref_spadsP13VL53L0X_Dev_thPhS1_mmmmPm+0x108>
    23fa:	0b 85       	ldd	r16, Y+11	; 0x0b
    23fc:	1c 85       	ldd	r17, Y+12	; 0x0c
    23fe:	2d 85       	ldd	r18, Y+13	; 0x0d
    2400:	3e 85       	ldd	r19, Y+14	; 0x0e
    2402:	b2 01       	movw	r22, r4
    2404:	a1 01       	movw	r20, r2
    2406:	c3 01       	movw	r24, r6
    2408:	0e 94 54 11 	call	0x22a8	; 0x22a8 <_Z15enable_spad_bitPhmm>
    240c:	8b 85       	ldd	r24, Y+11	; 0x0b
    240e:	9c 85       	ldd	r25, Y+12	; 0x0c
    2410:	ad 85       	ldd	r26, Y+13	; 0x0d
    2412:	be 85       	ldd	r27, Y+14	; 0x0e
    2414:	01 96       	adiw	r24, 0x01	; 1
    2416:	a1 1d       	adc	r26, r1
    2418:	b1 1d       	adc	r27, r1
    241a:	8a a7       	std	Y+42, r24	; 0x2a
    241c:	9b a7       	std	Y+43, r25	; 0x2b
    241e:	ac a7       	std	Y+44, r26	; 0x2c
    2420:	bd a7       	std	Y+45, r27	; 0x2d
    2422:	2f 85       	ldd	r18, Y+15	; 0x0f
    2424:	38 89       	ldd	r19, Y+16	; 0x10
    2426:	49 89       	ldd	r20, Y+17	; 0x11
    2428:	5a 89       	ldd	r21, Y+18	; 0x12
    242a:	2f 5f       	subi	r18, 0xFF	; 255
    242c:	3f 4f       	sbci	r19, 0xFF	; 255
    242e:	4f 4f       	sbci	r20, 0xFF	; 255
    2430:	5f 4f       	sbci	r21, 0xFF	; 255
    2432:	2f 87       	std	Y+15, r18	; 0x0f
    2434:	38 8b       	std	Y+16, r19	; 0x10
    2436:	49 8b       	std	Y+17, r20	; 0x11
    2438:	5a 8b       	std	Y+18, r21	; 0x12
    243a:	ab cf       	rjmp	.-170    	; 0x2392 <_Z16enable_ref_spadsP13VL53L0X_Dev_thPhS1_mmmmPm+0x5a>
    243c:	80 e0       	ldi	r24, 0x00	; 0
    243e:	01 c0       	rjmp	.+2      	; 0x2442 <_Z16enable_ref_spadsP13VL53L0X_Dev_thPhS1_mmmmPm+0x10a>
    2440:	8e ec       	ldi	r24, 0xCE	; 206
    2442:	ea a9       	ldd	r30, Y+50	; 0x32
    2444:	fb a9       	ldd	r31, Y+51	; 0x33
    2446:	2a a5       	ldd	r18, Y+42	; 0x2a
    2448:	3b a5       	ldd	r19, Y+43	; 0x2b
    244a:	4c a5       	ldd	r20, Y+44	; 0x2c
    244c:	5d a5       	ldd	r21, Y+45	; 0x2d
    244e:	20 83       	st	Z, r18
    2450:	31 83       	std	Z+1, r19	; 0x01
    2452:	42 83       	std	Z+2, r20	; 0x02
    2454:	53 83       	std	Z+3, r21	; 0x03
    2456:	81 11       	cpse	r24, r1
    2458:	23 c0       	rjmp	.+70     	; 0x24a0 <_Z16enable_ref_spadsP13VL53L0X_Dev_thPhS1_mmmmPm+0x168>
    245a:	b3 01       	movw	r22, r6
    245c:	8b 89       	ldd	r24, Y+19	; 0x13
    245e:	9c 89       	ldd	r25, Y+20	; 0x14
    2460:	0e 94 82 11 	call	0x2304	; 0x2304 <_Z16set_ref_spad_mapP13VL53L0X_Dev_tPh>
    2464:	81 11       	cpse	r24, r1
    2466:	1c c0       	rjmp	.+56     	; 0x24a0 <_Z16enable_ref_spadsP13VL53L0X_Dev_thPhS1_mmmmPm+0x168>
    2468:	be 01       	movw	r22, r28
    246a:	6f 5f       	subi	r22, 0xFF	; 255
    246c:	7f 4f       	sbci	r23, 0xFF	; 255
    246e:	8b 89       	ldd	r24, Y+19	; 0x13
    2470:	9c 89       	ldd	r25, Y+20	; 0x14
    2472:	0e 94 8f 11 	call	0x231e	; 0x231e <_Z16get_ref_spad_mapP13VL53L0X_Dev_tPh>
    2476:	d3 01       	movw	r26, r6
    2478:	fe 01       	movw	r30, r28
    247a:	31 96       	adiw	r30, 0x01	; 1
    247c:	40 e0       	ldi	r20, 0x00	; 0
    247e:	50 e0       	ldi	r21, 0x00	; 0
    2480:	ba 01       	movw	r22, r20
    2482:	42 15       	cp	r20, r2
    2484:	53 05       	cpc	r21, r3
    2486:	64 05       	cpc	r22, r4
    2488:	75 05       	cpc	r23, r5
    248a:	51 f0       	breq	.+20     	; 0x24a0 <_Z16enable_ref_spadsP13VL53L0X_Dev_thPhS1_mmmmPm+0x168>
    248c:	2d 91       	ld	r18, X+
    248e:	91 91       	ld	r25, Z+
    2490:	29 13       	cpse	r18, r25
    2492:	05 c0       	rjmp	.+10     	; 0x249e <_Z16enable_ref_spadsP13VL53L0X_Dev_thPhS1_mmmmPm+0x166>
    2494:	4f 5f       	subi	r20, 0xFF	; 255
    2496:	5f 4f       	sbci	r21, 0xFF	; 255
    2498:	6f 4f       	sbci	r22, 0xFF	; 255
    249a:	7f 4f       	sbci	r23, 0xFF	; 255
    249c:	f2 cf       	rjmp	.-28     	; 0x2482 <_Z16enable_ref_spadsP13VL53L0X_Dev_thPhS1_mmmmPm+0x14a>
    249e:	8e ec       	ldi	r24, 0xCE	; 206
    24a0:	66 96       	adiw	r28, 0x16	; 22
    24a2:	0f b6       	in	r0, 0x3f	; 63
    24a4:	f8 94       	cli
    24a6:	de bf       	out	0x3e, r29	; 62
    24a8:	0f be       	out	0x3f, r0	; 63
    24aa:	cd bf       	out	0x3d, r28	; 61
    24ac:	df 91       	pop	r29
    24ae:	cf 91       	pop	r28
    24b0:	1f 91       	pop	r17
    24b2:	0f 91       	pop	r16
    24b4:	ff 90       	pop	r15
    24b6:	ef 90       	pop	r14
    24b8:	df 90       	pop	r13
    24ba:	cf 90       	pop	r12
    24bc:	bf 90       	pop	r11
    24be:	af 90       	pop	r10
    24c0:	9f 90       	pop	r9
    24c2:	7f 90       	pop	r7
    24c4:	6f 90       	pop	r6
    24c6:	5f 90       	pop	r5
    24c8:	4f 90       	pop	r4
    24ca:	3f 90       	pop	r3
    24cc:	2f 90       	pop	r2
    24ce:	08 95       	ret

000024d0 <_Z30perform_ref_signal_measurementP13VL53L0X_Dev_tPj>:
    24d0:	af 92       	push	r10
    24d2:	bf 92       	push	r11
    24d4:	df 92       	push	r13
    24d6:	ef 92       	push	r14
    24d8:	ff 92       	push	r15
    24da:	0f 93       	push	r16
    24dc:	1f 93       	push	r17
    24de:	cf 93       	push	r28
    24e0:	df 93       	push	r29
    24e2:	cd b7       	in	r28, 0x3d	; 61
    24e4:	de b7       	in	r29, 0x3e	; 62
    24e6:	69 97       	sbiw	r28, 0x19	; 25
    24e8:	0f b6       	in	r0, 0x3f	; 63
    24ea:	f8 94       	cli
    24ec:	de bf       	out	0x3e, r29	; 62
    24ee:	0f be       	out	0x3f, r0	; 63
    24f0:	cd bf       	out	0x3d, r28	; 61
    24f2:	8c 01       	movw	r16, r24
    24f4:	5b 01       	movw	r10, r22
    24f6:	7c 01       	movw	r14, r24
    24f8:	83 ee       	ldi	r24, 0xE3	; 227
    24fa:	e8 1a       	sub	r14, r24
    24fc:	8e ef       	ldi	r24, 0xFE	; 254
    24fe:	f8 0a       	sbc	r15, r24
    2500:	f7 01       	movw	r30, r14
    2502:	d0 80       	ld	r13, Z
    2504:	40 ec       	ldi	r20, 0xC0	; 192
    2506:	61 e0       	ldi	r22, 0x01	; 1
    2508:	c8 01       	movw	r24, r16
    250a:	0e 94 c8 22 	call	0x4590	; 0x4590 <VL53L0X_WrByte>
    250e:	81 11       	cpse	r24, r1
    2510:	26 c0       	rjmp	.+76     	; 0x255e <_Z30perform_ref_signal_measurementP13VL53L0X_Dev_tPj+0x8e>
    2512:	be 01       	movw	r22, r28
    2514:	6f 5f       	subi	r22, 0xFF	; 255
    2516:	7f 4f       	sbci	r23, 0xFF	; 255
    2518:	c8 01       	movw	r24, r16
    251a:	0e 94 0b 0e 	call	0x1c16	; 0x1c16 <VL53L0X_PerformSingleRangingMeasurement>
    251e:	81 11       	cpse	r24, r1
    2520:	1e c0       	rjmp	.+60     	; 0x255e <_Z30perform_ref_signal_measurementP13VL53L0X_Dev_tPj+0x8e>
    2522:	41 e0       	ldi	r20, 0x01	; 1
    2524:	6f ef       	ldi	r22, 0xFF	; 255
    2526:	c8 01       	movw	r24, r16
    2528:	0e 94 c8 22 	call	0x4590	; 0x4590 <VL53L0X_WrByte>
    252c:	81 11       	cpse	r24, r1
    252e:	17 c0       	rjmp	.+46     	; 0x255e <_Z30perform_ref_signal_measurementP13VL53L0X_Dev_tPj+0x8e>
    2530:	a5 01       	movw	r20, r10
    2532:	66 eb       	ldi	r22, 0xB6	; 182
    2534:	c8 01       	movw	r24, r16
    2536:	0e 94 19 23 	call	0x4632	; 0x4632 <VL53L0X_RdWord>
    253a:	81 11       	cpse	r24, r1
    253c:	10 c0       	rjmp	.+32     	; 0x255e <_Z30perform_ref_signal_measurementP13VL53L0X_Dev_tPj+0x8e>
    253e:	40 e0       	ldi	r20, 0x00	; 0
    2540:	6f ef       	ldi	r22, 0xFF	; 255
    2542:	c8 01       	movw	r24, r16
    2544:	0e 94 c8 22 	call	0x4590	; 0x4590 <VL53L0X_WrByte>
    2548:	81 11       	cpse	r24, r1
    254a:	09 c0       	rjmp	.+18     	; 0x255e <_Z30perform_ref_signal_measurementP13VL53L0X_Dev_tPj+0x8e>
    254c:	4d 2d       	mov	r20, r13
    254e:	61 e0       	ldi	r22, 0x01	; 1
    2550:	c8 01       	movw	r24, r16
    2552:	0e 94 c8 22 	call	0x4590	; 0x4590 <VL53L0X_WrByte>
    2556:	81 11       	cpse	r24, r1
    2558:	02 c0       	rjmp	.+4      	; 0x255e <_Z30perform_ref_signal_measurementP13VL53L0X_Dev_tPj+0x8e>
    255a:	f7 01       	movw	r30, r14
    255c:	d0 82       	st	Z, r13
    255e:	69 96       	adiw	r28, 0x19	; 25
    2560:	0f b6       	in	r0, 0x3f	; 63
    2562:	f8 94       	cli
    2564:	de bf       	out	0x3e, r29	; 62
    2566:	0f be       	out	0x3f, r0	; 63
    2568:	cd bf       	out	0x3d, r28	; 61
    256a:	df 91       	pop	r29
    256c:	cf 91       	pop	r28
    256e:	1f 91       	pop	r17
    2570:	0f 91       	pop	r16
    2572:	ff 90       	pop	r15
    2574:	ef 90       	pop	r14
    2576:	df 90       	pop	r13
    2578:	bf 90       	pop	r11
    257a:	af 90       	pop	r10
    257c:	08 95       	ret

0000257e <VL53L0X_set_reference_spads>:
    257e:	4f 92       	push	r4
    2580:	5f 92       	push	r5
    2582:	6f 92       	push	r6
    2584:	7f 92       	push	r7
    2586:	8f 92       	push	r8
    2588:	9f 92       	push	r9
    258a:	af 92       	push	r10
    258c:	bf 92       	push	r11
    258e:	cf 92       	push	r12
    2590:	df 92       	push	r13
    2592:	ef 92       	push	r14
    2594:	ff 92       	push	r15
    2596:	0f 93       	push	r16
    2598:	1f 93       	push	r17
    259a:	cf 93       	push	r28
    259c:	df 93       	push	r29
    259e:	00 d0       	rcall	.+0      	; 0x25a0 <VL53L0X_set_reference_spads+0x22>
    25a0:	00 d0       	rcall	.+0      	; 0x25a2 <VL53L0X_set_reference_spads+0x24>
    25a2:	cd b7       	in	r28, 0x3d	; 61
    25a4:	de b7       	in	r29, 0x3e	; 62
    25a6:	4c 01       	movw	r8, r24
    25a8:	64 2e       	mov	r6, r20
    25aa:	15 2f       	mov	r17, r21
    25ac:	06 2f       	mov	r16, r22
    25ae:	b7 2e       	mov	r11, r23
    25b0:	72 2e       	mov	r7, r18
    25b2:	41 e0       	ldi	r20, 0x01	; 1
    25b4:	6f ef       	ldi	r22, 0xFF	; 255
    25b6:	0e 94 c8 22 	call	0x4590	; 0x4590 <VL53L0X_WrByte>
    25ba:	81 11       	cpse	r24, r1
    25bc:	1a c0       	rjmp	.+52     	; 0x25f2 <VL53L0X_set_reference_spads+0x74>
    25be:	40 e0       	ldi	r20, 0x00	; 0
    25c0:	6f e4       	ldi	r22, 0x4F	; 79
    25c2:	c4 01       	movw	r24, r8
    25c4:	0e 94 c8 22 	call	0x4590	; 0x4590 <VL53L0X_WrByte>
    25c8:	81 11       	cpse	r24, r1
    25ca:	13 c0       	rjmp	.+38     	; 0x25f2 <VL53L0X_set_reference_spads+0x74>
    25cc:	4c e2       	ldi	r20, 0x2C	; 44
    25ce:	6e e4       	ldi	r22, 0x4E	; 78
    25d0:	c4 01       	movw	r24, r8
    25d2:	0e 94 c8 22 	call	0x4590	; 0x4590 <VL53L0X_WrByte>
    25d6:	81 11       	cpse	r24, r1
    25d8:	0c c0       	rjmp	.+24     	; 0x25f2 <VL53L0X_set_reference_spads+0x74>
    25da:	40 e0       	ldi	r20, 0x00	; 0
    25dc:	6f ef       	ldi	r22, 0xFF	; 255
    25de:	c4 01       	movw	r24, r8
    25e0:	0e 94 c8 22 	call	0x4590	; 0x4590 <VL53L0X_WrByte>
    25e4:	81 11       	cpse	r24, r1
    25e6:	05 c0       	rjmp	.+10     	; 0x25f2 <VL53L0X_set_reference_spads+0x74>
    25e8:	44 eb       	ldi	r20, 0xB4	; 180
    25ea:	66 eb       	ldi	r22, 0xB6	; 182
    25ec:	c4 01       	movw	r24, r8
    25ee:	0e 94 c8 22 	call	0x4590	; 0x4590 <VL53L0X_WrByte>
    25f2:	24 01       	movw	r4, r8
    25f4:	2f ee       	ldi	r18, 0xEF	; 239
    25f6:	42 1a       	sub	r4, r18
    25f8:	2e ef       	ldi	r18, 0xFE	; 254
    25fa:	52 0a       	sbc	r5, r18
    25fc:	f2 01       	movw	r30, r4
    25fe:	10 82       	st	Z, r1
    2600:	31 96       	adiw	r30, 0x01	; 1
    2602:	10 82       	st	Z, r1
    2604:	31 96       	adiw	r30, 0x01	; 1
    2606:	10 82       	st	Z, r1
    2608:	31 96       	adiw	r30, 0x01	; 1
    260a:	10 82       	st	Z, r1
    260c:	31 96       	adiw	r30, 0x01	; 1
    260e:	10 82       	st	Z, r1
    2610:	31 96       	adiw	r30, 0x01	; 1
    2612:	10 82       	st	Z, r1
    2614:	c1 2c       	mov	r12, r1
    2616:	d1 2c       	mov	r13, r1
    2618:	76 01       	movw	r14, r12
    261a:	77 20       	and	r7, r7
    261c:	81 f0       	breq	.+32     	; 0x263e <VL53L0X_set_reference_spads+0xc0>
    261e:	c7 01       	movw	r24, r14
    2620:	b6 01       	movw	r22, r12
    2622:	6c 54       	subi	r22, 0x4C	; 76
    2624:	7f 4f       	sbci	r23, 0xFF	; 255
    2626:	8f 4f       	sbci	r24, 0xFF	; 255
    2628:	9f 4f       	sbci	r25, 0xFF	; 255
    262a:	0e 94 38 11 	call	0x2270	; 0x2270 <_Z11is_aperturem>
    262e:	81 11       	cpse	r24, r1
    2630:	06 c0       	rjmp	.+12     	; 0x263e <VL53L0X_set_reference_spads+0xc0>
    2632:	fc e2       	ldi	r31, 0x2C	; 44
    2634:	cf 16       	cp	r12, r31
    2636:	d1 04       	cpc	r13, r1
    2638:	e1 04       	cpc	r14, r1
    263a:	f1 04       	cpc	r15, r1
    263c:	79 f5       	brne	.+94     	; 0x269c <VL53L0X_set_reference_spads+0x11e>
    263e:	ce 01       	movw	r24, r28
    2640:	01 96       	adiw	r24, 0x01	; 1
    2642:	9f 93       	push	r25
    2644:	8f 93       	push	r24
    2646:	bf 92       	push	r11
    2648:	0f 93       	push	r16
    264a:	1f 93       	push	r17
    264c:	6f 92       	push	r6
    264e:	ff 92       	push	r15
    2650:	ef 92       	push	r14
    2652:	df 92       	push	r13
    2654:	cf 92       	push	r12
    2656:	84 eb       	ldi	r24, 0xB4	; 180
    2658:	a8 2e       	mov	r10, r24
    265a:	b1 2c       	mov	r11, r1
    265c:	c1 2c       	mov	r12, r1
    265e:	d1 2c       	mov	r13, r1
    2660:	16 e0       	ldi	r17, 0x06	; 6
    2662:	e1 2e       	mov	r14, r17
    2664:	f1 2c       	mov	r15, r1
    2666:	00 e0       	ldi	r16, 0x00	; 0
    2668:	10 e0       	ldi	r17, 0x00	; 0
    266a:	92 01       	movw	r18, r4
    266c:	a4 01       	movw	r20, r8
    266e:	49 5e       	subi	r20, 0xE9	; 233
    2670:	5e 4f       	sbci	r21, 0xFE	; 254
    2672:	67 2d       	mov	r22, r7
    2674:	c4 01       	movw	r24, r8
    2676:	0e 94 9c 11 	call	0x2338	; 0x2338 <_Z16enable_ref_spadsP13VL53L0X_Dev_thPhS1_mmmmPm>
    267a:	0f b6       	in	r0, 0x3f	; 63
    267c:	f8 94       	cli
    267e:	de bf       	out	0x3e, r29	; 62
    2680:	0f be       	out	0x3f, r0	; 63
    2682:	cd bf       	out	0x3d, r28	; 61
    2684:	81 11       	cpse	r24, r1
    2686:	10 c0       	rjmp	.+32     	; 0x26a8 <VL53L0X_set_reference_spads+0x12a>
    2688:	f4 01       	movw	r30, r8
    268a:	ec 5f       	subi	r30, 0xFC	; 252
    268c:	fe 4f       	sbci	r31, 0xFE	; 254
    268e:	91 e0       	ldi	r25, 0x01	; 1
    2690:	90 83       	st	Z, r25
    2692:	32 97       	sbiw	r30, 0x02	; 2
    2694:	60 82       	st	Z, r6
    2696:	31 96       	adiw	r30, 0x01	; 1
    2698:	70 82       	st	Z, r7
    269a:	06 c0       	rjmp	.+12     	; 0x26a8 <VL53L0X_set_reference_spads+0x12a>
    269c:	3f ef       	ldi	r19, 0xFF	; 255
    269e:	c3 1a       	sub	r12, r19
    26a0:	d3 0a       	sbc	r13, r19
    26a2:	e3 0a       	sbc	r14, r19
    26a4:	f3 0a       	sbc	r15, r19
    26a6:	bb cf       	rjmp	.-138    	; 0x261e <VL53L0X_set_reference_spads+0xa0>
    26a8:	0f 90       	pop	r0
    26aa:	0f 90       	pop	r0
    26ac:	0f 90       	pop	r0
    26ae:	0f 90       	pop	r0
    26b0:	df 91       	pop	r29
    26b2:	cf 91       	pop	r28
    26b4:	1f 91       	pop	r17
    26b6:	0f 91       	pop	r16
    26b8:	ff 90       	pop	r15
    26ba:	ef 90       	pop	r14
    26bc:	df 90       	pop	r13
    26be:	cf 90       	pop	r12
    26c0:	bf 90       	pop	r11
    26c2:	af 90       	pop	r10
    26c4:	9f 90       	pop	r9
    26c6:	8f 90       	pop	r8
    26c8:	7f 90       	pop	r7
    26ca:	6f 90       	pop	r6
    26cc:	5f 90       	pop	r5
    26ce:	4f 90       	pop	r4
    26d0:	08 95       	ret

000026d2 <_Z38VL53L0X_perform_single_ref_calibrationP13VL53L0X_Dev_th>:
    26d2:	cf 93       	push	r28
    26d4:	df 93       	push	r29
    26d6:	ec 01       	movw	r28, r24
    26d8:	46 2f       	mov	r20, r22
    26da:	41 60       	ori	r20, 0x01	; 1
    26dc:	60 e0       	ldi	r22, 0x00	; 0
    26de:	0e 94 c8 22 	call	0x4590	; 0x4590 <VL53L0X_WrByte>
    26e2:	81 11       	cpse	r24, r1
    26e4:	14 c0       	rjmp	.+40     	; 0x270e <_Z38VL53L0X_perform_single_ref_calibrationP13VL53L0X_Dev_th+0x3c>
    26e6:	ce 01       	movw	r24, r28
    26e8:	0e 94 0f 17 	call	0x2e1e	; 0x2e1e <VL53L0X_measurement_poll_for_completion>
    26ec:	81 11       	cpse	r24, r1
    26ee:	0f c0       	rjmp	.+30     	; 0x270e <_Z38VL53L0X_perform_single_ref_calibrationP13VL53L0X_Dev_th+0x3c>
    26f0:	40 e0       	ldi	r20, 0x00	; 0
    26f2:	50 e0       	ldi	r21, 0x00	; 0
    26f4:	ba 01       	movw	r22, r20
    26f6:	ce 01       	movw	r24, r28
    26f8:	0e 94 d8 0d 	call	0x1bb0	; 0x1bb0 <VL53L0X_ClearInterruptMask>
    26fc:	81 11       	cpse	r24, r1
    26fe:	07 c0       	rjmp	.+14     	; 0x270e <_Z38VL53L0X_perform_single_ref_calibrationP13VL53L0X_Dev_th+0x3c>
    2700:	40 e0       	ldi	r20, 0x00	; 0
    2702:	60 e0       	ldi	r22, 0x00	; 0
    2704:	ce 01       	movw	r24, r28
    2706:	df 91       	pop	r29
    2708:	cf 91       	pop	r28
    270a:	0c 94 c8 22 	jmp	0x4590	; 0x4590 <VL53L0X_WrByte>
    270e:	df 91       	pop	r29
    2710:	cf 91       	pop	r28
    2712:	08 95       	ret

00002714 <_Z26VL53L0X_ref_calibration_ioP13VL53L0X_Dev_thhhPhS1_hh>:
    2714:	5f 92       	push	r5
    2716:	6f 92       	push	r6
    2718:	7f 92       	push	r7
    271a:	8f 92       	push	r8
    271c:	9f 92       	push	r9
    271e:	af 92       	push	r10
    2720:	bf 92       	push	r11
    2722:	cf 92       	push	r12
    2724:	df 92       	push	r13
    2726:	ef 92       	push	r14
    2728:	ff 92       	push	r15
    272a:	0f 93       	push	r16
    272c:	1f 93       	push	r17
    272e:	cf 93       	push	r28
    2730:	df 93       	push	r29
    2732:	1f 92       	push	r1
    2734:	cd b7       	in	r28, 0x3d	; 61
    2736:	de b7       	in	r29, 0x3e	; 62
    2738:	4c 01       	movw	r8, r24
    273a:	56 2e       	mov	r5, r22
    273c:	b4 2e       	mov	r11, r20
    273e:	d2 2e       	mov	r13, r18
    2740:	38 01       	movw	r6, r16
    2742:	19 82       	std	Y+1, r1	; 0x01
    2744:	41 e0       	ldi	r20, 0x01	; 1
    2746:	6f ef       	ldi	r22, 0xFF	; 255
    2748:	0e 94 c8 22 	call	0x4590	; 0x4590 <VL53L0X_WrByte>
    274c:	18 2f       	mov	r17, r24
    274e:	40 e0       	ldi	r20, 0x00	; 0
    2750:	60 e0       	ldi	r22, 0x00	; 0
    2752:	c4 01       	movw	r24, r8
    2754:	0e 94 c8 22 	call	0x4590	; 0x4590 <VL53L0X_WrByte>
    2758:	18 2b       	or	r17, r24
    275a:	40 e0       	ldi	r20, 0x00	; 0
    275c:	6f ef       	ldi	r22, 0xFF	; 255
    275e:	c4 01       	movw	r24, r8
    2760:	0e 94 c8 22 	call	0x4590	; 0x4590 <VL53L0X_WrByte>
    2764:	18 2b       	or	r17, r24
    2766:	55 20       	and	r5, r5
    2768:	91 f0       	breq	.+36     	; 0x278e <_Z26VL53L0X_ref_calibration_ioP13VL53L0X_Dev_thhhPhS1_hh+0x7a>
    276a:	cc 20       	and	r12, r12
    276c:	31 f0       	breq	.+12     	; 0x277a <_Z26VL53L0X_ref_calibration_ioP13VL53L0X_Dev_thhhPhS1_hh+0x66>
    276e:	a3 01       	movw	r20, r6
    2770:	6b ec       	ldi	r22, 0xCB	; 203
    2772:	c4 01       	movw	r24, r8
    2774:	0e 94 0d 23 	call	0x461a	; 0x461a <VL53L0X_RdByte>
    2778:	18 2b       	or	r17, r24
    277a:	aa 20       	and	r10, r10
    277c:	c9 f0       	breq	.+50     	; 0x27b0 <_Z26VL53L0X_ref_calibration_ioP13VL53L0X_Dev_thhhPhS1_hh+0x9c>
    277e:	ae 01       	movw	r20, r28
    2780:	4f 5f       	subi	r20, 0xFF	; 255
    2782:	5f 4f       	sbci	r21, 0xFF	; 255
    2784:	6e ee       	ldi	r22, 0xEE	; 238
    2786:	c4 01       	movw	r24, r8
    2788:	0e 94 0d 23 	call	0x461a	; 0x461a <VL53L0X_RdByte>
    278c:	10 c0       	rjmp	.+32     	; 0x27ae <_Z26VL53L0X_ref_calibration_ioP13VL53L0X_Dev_thhhPhS1_hh+0x9a>
    278e:	cc 20       	and	r12, r12
    2790:	31 f0       	breq	.+12     	; 0x279e <_Z26VL53L0X_ref_calibration_ioP13VL53L0X_Dev_thhhPhS1_hh+0x8a>
    2792:	4b 2d       	mov	r20, r11
    2794:	6b ec       	ldi	r22, 0xCB	; 203
    2796:	c4 01       	movw	r24, r8
    2798:	0e 94 c8 22 	call	0x4590	; 0x4590 <VL53L0X_WrByte>
    279c:	18 2b       	or	r17, r24
    279e:	aa 20       	and	r10, r10
    27a0:	39 f0       	breq	.+14     	; 0x27b0 <_Z26VL53L0X_ref_calibration_ioP13VL53L0X_Dev_thhhPhS1_hh+0x9c>
    27a2:	2d 2d       	mov	r18, r13
    27a4:	40 e8       	ldi	r20, 0x80	; 128
    27a6:	6e ee       	ldi	r22, 0xEE	; 238
    27a8:	c4 01       	movw	r24, r8
    27aa:	0e 94 e0 22 	call	0x45c0	; 0x45c0 <VL53L0X_UpdateByte>
    27ae:	18 2b       	or	r17, r24
    27b0:	41 e0       	ldi	r20, 0x01	; 1
    27b2:	6f ef       	ldi	r22, 0xFF	; 255
    27b4:	c4 01       	movw	r24, r8
    27b6:	0e 94 c8 22 	call	0x4590	; 0x4590 <VL53L0X_WrByte>
    27ba:	18 2b       	or	r17, r24
    27bc:	41 e0       	ldi	r20, 0x01	; 1
    27be:	60 e0       	ldi	r22, 0x00	; 0
    27c0:	c4 01       	movw	r24, r8
    27c2:	0e 94 c8 22 	call	0x4590	; 0x4590 <VL53L0X_WrByte>
    27c6:	18 2b       	or	r17, r24
    27c8:	40 e0       	ldi	r20, 0x00	; 0
    27ca:	6f ef       	ldi	r22, 0xFF	; 255
    27cc:	c4 01       	movw	r24, r8
    27ce:	0e 94 c8 22 	call	0x4590	; 0x4590 <VL53L0X_WrByte>
    27d2:	99 81       	ldd	r25, Y+1	; 0x01
    27d4:	9f 7e       	andi	r25, 0xEF	; 239
    27d6:	f7 01       	movw	r30, r14
    27d8:	90 83       	st	Z, r25
    27da:	81 2b       	or	r24, r17
    27dc:	0f 90       	pop	r0
    27de:	df 91       	pop	r29
    27e0:	cf 91       	pop	r28
    27e2:	1f 91       	pop	r17
    27e4:	0f 91       	pop	r16
    27e6:	ff 90       	pop	r15
    27e8:	ef 90       	pop	r14
    27ea:	df 90       	pop	r13
    27ec:	cf 90       	pop	r12
    27ee:	bf 90       	pop	r11
    27f0:	af 90       	pop	r10
    27f2:	9f 90       	pop	r9
    27f4:	8f 90       	pop	r8
    27f6:	7f 90       	pop	r7
    27f8:	6f 90       	pop	r6
    27fa:	5f 90       	pop	r5
    27fc:	08 95       	ret

000027fe <_Z31VL53L0X_perform_vhv_calibrationP13VL53L0X_Dev_tPhhh>:
    27fe:	8f 92       	push	r8
    2800:	9f 92       	push	r9
    2802:	af 92       	push	r10
    2804:	bf 92       	push	r11
    2806:	cf 92       	push	r12
    2808:	df 92       	push	r13
    280a:	ef 92       	push	r14
    280c:	ff 92       	push	r15
    280e:	0f 93       	push	r16
    2810:	1f 93       	push	r17
    2812:	cf 93       	push	r28
    2814:	df 93       	push	r29
    2816:	1f 92       	push	r1
    2818:	cd b7       	in	r28, 0x3d	; 61
    281a:	de b7       	in	r29, 0x3e	; 62
    281c:	4c 01       	movw	r8, r24
    281e:	8b 01       	movw	r16, r22
    2820:	f4 2e       	mov	r15, r20
    2822:	b2 2e       	mov	r11, r18
    2824:	19 82       	std	Y+1, r1	; 0x01
    2826:	22 23       	and	r18, r18
    2828:	29 f0       	breq	.+10     	; 0x2834 <_Z31VL53L0X_perform_vhv_calibrationP13VL53L0X_Dev_tPhhh+0x36>
    282a:	fc 01       	movw	r30, r24
    282c:	e3 5e       	subi	r30, 0xE3	; 227
    282e:	fe 4f       	sbci	r31, 0xFE	; 254
    2830:	d0 80       	ld	r13, Z
    2832:	01 c0       	rjmp	.+2      	; 0x2836 <_Z31VL53L0X_perform_vhv_calibrationP13VL53L0X_Dev_tPhhh+0x38>
    2834:	d1 2c       	mov	r13, r1
    2836:	41 e0       	ldi	r20, 0x01	; 1
    2838:	61 e0       	ldi	r22, 0x01	; 1
    283a:	c4 01       	movw	r24, r8
    283c:	0e 94 c8 22 	call	0x4590	; 0x4590 <VL53L0X_WrByte>
    2840:	81 11       	cpse	r24, r1
    2842:	16 c0       	rjmp	.+44     	; 0x2870 <_Z31VL53L0X_perform_vhv_calibrationP13VL53L0X_Dev_tPhhh+0x72>
    2844:	60 e4       	ldi	r22, 0x40	; 64
    2846:	c4 01       	movw	r24, r8
    2848:	0e 94 69 13 	call	0x26d2	; 0x26d2 <_Z38VL53L0X_perform_single_ref_calibrationP13VL53L0X_Dev_th>
    284c:	81 11       	cpse	r24, r1
    284e:	10 c0       	rjmp	.+32     	; 0x2870 <_Z31VL53L0X_perform_vhv_calibrationP13VL53L0X_Dev_tPhhh+0x72>
    2850:	91 e0       	ldi	r25, 0x01	; 1
    2852:	f9 12       	cpse	r15, r25
    2854:	0d c0       	rjmp	.+26     	; 0x2870 <_Z31VL53L0X_perform_vhv_calibrationP13VL53L0X_Dev_tPhhh+0x72>
    2856:	a1 2c       	mov	r10, r1
    2858:	cc 24       	eor	r12, r12
    285a:	c3 94       	inc	r12
    285c:	fe 01       	movw	r30, r28
    285e:	31 96       	adiw	r30, 0x01	; 1
    2860:	7f 01       	movw	r14, r30
    2862:	20 e0       	ldi	r18, 0x00	; 0
    2864:	40 e0       	ldi	r20, 0x00	; 0
    2866:	61 e0       	ldi	r22, 0x01	; 1
    2868:	c4 01       	movw	r24, r8
    286a:	0e 94 8a 13 	call	0x2714	; 0x2714 <_Z26VL53L0X_ref_calibration_ioP13VL53L0X_Dev_thhhPhS1_hh>
    286e:	02 c0       	rjmp	.+4      	; 0x2874 <_Z31VL53L0X_perform_vhv_calibrationP13VL53L0X_Dev_tPhhh+0x76>
    2870:	f8 01       	movw	r30, r16
    2872:	10 82       	st	Z, r1
    2874:	81 11       	cpse	r24, r1
    2876:	0d c0       	rjmp	.+26     	; 0x2892 <_Z31VL53L0X_perform_vhv_calibrationP13VL53L0X_Dev_tPhhh+0x94>
    2878:	bb 20       	and	r11, r11
    287a:	59 f0       	breq	.+22     	; 0x2892 <_Z31VL53L0X_perform_vhv_calibrationP13VL53L0X_Dev_tPhhh+0x94>
    287c:	4d 2d       	mov	r20, r13
    287e:	61 e0       	ldi	r22, 0x01	; 1
    2880:	c4 01       	movw	r24, r8
    2882:	0e 94 c8 22 	call	0x4590	; 0x4590 <VL53L0X_WrByte>
    2886:	81 11       	cpse	r24, r1
    2888:	04 c0       	rjmp	.+8      	; 0x2892 <_Z31VL53L0X_perform_vhv_calibrationP13VL53L0X_Dev_tPhhh+0x94>
    288a:	f4 01       	movw	r30, r8
    288c:	e3 5e       	subi	r30, 0xE3	; 227
    288e:	fe 4f       	sbci	r31, 0xFE	; 254
    2890:	d0 82       	st	Z, r13
    2892:	0f 90       	pop	r0
    2894:	df 91       	pop	r29
    2896:	cf 91       	pop	r28
    2898:	1f 91       	pop	r17
    289a:	0f 91       	pop	r16
    289c:	ff 90       	pop	r15
    289e:	ef 90       	pop	r14
    28a0:	df 90       	pop	r13
    28a2:	cf 90       	pop	r12
    28a4:	bf 90       	pop	r11
    28a6:	af 90       	pop	r10
    28a8:	9f 90       	pop	r9
    28aa:	8f 90       	pop	r8
    28ac:	08 95       	ret

000028ae <VL53L0X_perform_phase_calibration>:
    28ae:	8f 92       	push	r8
    28b0:	9f 92       	push	r9
    28b2:	af 92       	push	r10
    28b4:	bf 92       	push	r11
    28b6:	cf 92       	push	r12
    28b8:	df 92       	push	r13
    28ba:	ef 92       	push	r14
    28bc:	ff 92       	push	r15
    28be:	0f 93       	push	r16
    28c0:	1f 93       	push	r17
    28c2:	cf 93       	push	r28
    28c4:	df 93       	push	r29
    28c6:	1f 92       	push	r1
    28c8:	cd b7       	in	r28, 0x3d	; 61
    28ca:	de b7       	in	r29, 0x3e	; 62
    28cc:	4c 01       	movw	r8, r24
    28ce:	7b 01       	movw	r14, r22
    28d0:	14 2f       	mov	r17, r20
    28d2:	b2 2e       	mov	r11, r18
    28d4:	22 23       	and	r18, r18
    28d6:	29 f0       	breq	.+10     	; 0x28e2 <VL53L0X_perform_phase_calibration+0x34>
    28d8:	fc 01       	movw	r30, r24
    28da:	e3 5e       	subi	r30, 0xE3	; 227
    28dc:	fe 4f       	sbci	r31, 0xFE	; 254
    28de:	d0 80       	ld	r13, Z
    28e0:	01 c0       	rjmp	.+2      	; 0x28e4 <VL53L0X_perform_phase_calibration+0x36>
    28e2:	d1 2c       	mov	r13, r1
    28e4:	42 e0       	ldi	r20, 0x02	; 2
    28e6:	61 e0       	ldi	r22, 0x01	; 1
    28e8:	c4 01       	movw	r24, r8
    28ea:	0e 94 c8 22 	call	0x4590	; 0x4590 <VL53L0X_WrByte>
    28ee:	81 11       	cpse	r24, r1
    28f0:	15 c0       	rjmp	.+42     	; 0x291c <VL53L0X_perform_phase_calibration+0x6e>
    28f2:	60 e0       	ldi	r22, 0x00	; 0
    28f4:	c4 01       	movw	r24, r8
    28f6:	0e 94 69 13 	call	0x26d2	; 0x26d2 <_Z38VL53L0X_perform_single_ref_calibrationP13VL53L0X_Dev_th>
    28fa:	81 11       	cpse	r24, r1
    28fc:	0f c0       	rjmp	.+30     	; 0x291c <VL53L0X_perform_phase_calibration+0x6e>
    28fe:	11 30       	cpi	r17, 0x01	; 1
    2900:	69 f4       	brne	.+26     	; 0x291c <VL53L0X_perform_phase_calibration+0x6e>
    2902:	aa 24       	eor	r10, r10
    2904:	a3 94       	inc	r10
    2906:	c1 2c       	mov	r12, r1
    2908:	8e 01       	movw	r16, r28
    290a:	0f 5f       	subi	r16, 0xFF	; 255
    290c:	1f 4f       	sbci	r17, 0xFF	; 255
    290e:	20 e0       	ldi	r18, 0x00	; 0
    2910:	40 e0       	ldi	r20, 0x00	; 0
    2912:	61 e0       	ldi	r22, 0x01	; 1
    2914:	c4 01       	movw	r24, r8
    2916:	0e 94 8a 13 	call	0x2714	; 0x2714 <_Z26VL53L0X_ref_calibration_ioP13VL53L0X_Dev_thhhPhS1_hh>
    291a:	02 c0       	rjmp	.+4      	; 0x2920 <VL53L0X_perform_phase_calibration+0x72>
    291c:	f7 01       	movw	r30, r14
    291e:	10 82       	st	Z, r1
    2920:	81 11       	cpse	r24, r1
    2922:	0d c0       	rjmp	.+26     	; 0x293e <VL53L0X_perform_phase_calibration+0x90>
    2924:	bb 20       	and	r11, r11
    2926:	59 f0       	breq	.+22     	; 0x293e <VL53L0X_perform_phase_calibration+0x90>
    2928:	4d 2d       	mov	r20, r13
    292a:	61 e0       	ldi	r22, 0x01	; 1
    292c:	c4 01       	movw	r24, r8
    292e:	0e 94 c8 22 	call	0x4590	; 0x4590 <VL53L0X_WrByte>
    2932:	81 11       	cpse	r24, r1
    2934:	04 c0       	rjmp	.+8      	; 0x293e <VL53L0X_perform_phase_calibration+0x90>
    2936:	f4 01       	movw	r30, r8
    2938:	e3 5e       	subi	r30, 0xE3	; 227
    293a:	fe 4f       	sbci	r31, 0xFE	; 254
    293c:	d0 82       	st	Z, r13
    293e:	0f 90       	pop	r0
    2940:	df 91       	pop	r29
    2942:	cf 91       	pop	r28
    2944:	1f 91       	pop	r17
    2946:	0f 91       	pop	r16
    2948:	ff 90       	pop	r15
    294a:	ef 90       	pop	r14
    294c:	df 90       	pop	r13
    294e:	cf 90       	pop	r12
    2950:	bf 90       	pop	r11
    2952:	af 90       	pop	r10
    2954:	9f 90       	pop	r9
    2956:	8f 90       	pop	r8
    2958:	08 95       	ret

0000295a <VL53L0X_perform_ref_calibration>:
    295a:	cf 92       	push	r12
    295c:	df 92       	push	r13
    295e:	ef 92       	push	r14
    2960:	ff 92       	push	r15
    2962:	0f 93       	push	r16
    2964:	1f 93       	push	r17
    2966:	cf 93       	push	r28
    2968:	df 93       	push	r29
    296a:	ec 01       	movw	r28, r24
    296c:	6a 01       	movw	r12, r20
    296e:	e2 2e       	mov	r14, r18
    2970:	8c 01       	movw	r16, r24
    2972:	03 5e       	subi	r16, 0xE3	; 227
    2974:	1e 4f       	sbci	r17, 0xFE	; 254
    2976:	f8 01       	movw	r30, r16
    2978:	f0 80       	ld	r15, Z
    297a:	20 e0       	ldi	r18, 0x00	; 0
    297c:	4e 2d       	mov	r20, r14
    297e:	0e 94 ff 13 	call	0x27fe	; 0x27fe <_Z31VL53L0X_perform_vhv_calibrationP13VL53L0X_Dev_tPhhh>
    2982:	81 11       	cpse	r24, r1
    2984:	11 c0       	rjmp	.+34     	; 0x29a8 <VL53L0X_perform_ref_calibration+0x4e>
    2986:	20 e0       	ldi	r18, 0x00	; 0
    2988:	4e 2d       	mov	r20, r14
    298a:	b6 01       	movw	r22, r12
    298c:	ce 01       	movw	r24, r28
    298e:	0e 94 57 14 	call	0x28ae	; 0x28ae <VL53L0X_perform_phase_calibration>
    2992:	81 11       	cpse	r24, r1
    2994:	09 c0       	rjmp	.+18     	; 0x29a8 <VL53L0X_perform_ref_calibration+0x4e>
    2996:	4f 2d       	mov	r20, r15
    2998:	61 e0       	ldi	r22, 0x01	; 1
    299a:	ce 01       	movw	r24, r28
    299c:	0e 94 c8 22 	call	0x4590	; 0x4590 <VL53L0X_WrByte>
    29a0:	81 11       	cpse	r24, r1
    29a2:	02 c0       	rjmp	.+4      	; 0x29a8 <VL53L0X_perform_ref_calibration+0x4e>
    29a4:	f8 01       	movw	r30, r16
    29a6:	f0 82       	st	Z, r15
    29a8:	df 91       	pop	r29
    29aa:	cf 91       	pop	r28
    29ac:	1f 91       	pop	r17
    29ae:	0f 91       	pop	r16
    29b0:	ff 90       	pop	r15
    29b2:	ef 90       	pop	r14
    29b4:	df 90       	pop	r13
    29b6:	cf 90       	pop	r12
    29b8:	08 95       	ret

000029ba <VL53L0X_perform_ref_spad_management>:
    29ba:	2f 92       	push	r2
    29bc:	3f 92       	push	r3
    29be:	4f 92       	push	r4
    29c0:	5f 92       	push	r5
    29c2:	6f 92       	push	r6
    29c4:	7f 92       	push	r7
    29c6:	8f 92       	push	r8
    29c8:	9f 92       	push	r9
    29ca:	af 92       	push	r10
    29cc:	bf 92       	push	r11
    29ce:	cf 92       	push	r12
    29d0:	df 92       	push	r13
    29d2:	ef 92       	push	r14
    29d4:	ff 92       	push	r15
    29d6:	0f 93       	push	r16
    29d8:	1f 93       	push	r17
    29da:	cf 93       	push	r28
    29dc:	df 93       	push	r29
    29de:	cd b7       	in	r28, 0x3d	; 61
    29e0:	de b7       	in	r29, 0x3e	; 62
    29e2:	a8 97       	sbiw	r28, 0x28	; 40
    29e4:	0f b6       	in	r0, 0x3f	; 63
    29e6:	f8 94       	cli
    29e8:	de bf       	out	0x3e, r29	; 62
    29ea:	0f be       	out	0x3f, r0	; 63
    29ec:	cd bf       	out	0x3d, r28	; 61
    29ee:	4c 01       	movw	r8, r24
    29f0:	7c a3       	std	Y+36, r23	; 0x24
    29f2:	6b a3       	std	Y+35, r22	; 0x23
    29f4:	5e a3       	std	Y+38, r21	; 0x26
    29f6:	4d a3       	std	Y+37, r20	; 0x25
    29f8:	1b 86       	std	Y+11, r1	; 0x0b
    29fa:	1c 86       	std	Y+12, r1	; 0x0c
    29fc:	1d 86       	std	Y+13, r1	; 0x0d
    29fe:	1e 86       	std	Y+14, r1	; 0x0e
    2a00:	1f 82       	std	Y+7, r1	; 0x07
    2a02:	18 86       	std	Y+8, r1	; 0x08
    2a04:	19 86       	std	Y+9, r1	; 0x09
    2a06:	1a 86       	std	Y+10, r1	; 0x0a
    2a08:	1a 8a       	std	Y+18, r1	; 0x12
    2a0a:	19 8a       	std	Y+17, r1	; 0x11
    2a0c:	fc 01       	movw	r30, r24
    2a0e:	e8 5d       	subi	r30, 0xD8	; 216
    2a10:	fe 4f       	sbci	r31, 0xFE	; 254
    2a12:	20 81       	ld	r18, Z
    2a14:	31 81       	ldd	r19, Z+1	; 0x01
    2a16:	3c 8b       	std	Y+20, r19	; 0x14
    2a18:	2b 8b       	std	Y+19, r18	; 0x13
    2a1a:	1c 01       	movw	r2, r24
    2a1c:	3f ee       	ldi	r19, 0xEF	; 239
    2a1e:	23 1a       	sub	r2, r19
    2a20:	3e ef       	ldi	r19, 0xFE	; 254
    2a22:	33 0a       	sbc	r3, r19
    2a24:	d1 01       	movw	r26, r2
    2a26:	1c 92       	st	X, r1
    2a28:	2c 01       	movw	r4, r24
    2a2a:	be ee       	ldi	r27, 0xEE	; 238
    2a2c:	4b 1a       	sub	r4, r27
    2a2e:	be ef       	ldi	r27, 0xFE	; 254
    2a30:	5b 0a       	sbc	r5, r27
    2a32:	f2 01       	movw	r30, r4
    2a34:	10 82       	st	Z, r1
    2a36:	31 96       	adiw	r30, 0x01	; 1
    2a38:	10 82       	st	Z, r1
    2a3a:	31 96       	adiw	r30, 0x01	; 1
    2a3c:	10 82       	st	Z, r1
    2a3e:	31 96       	adiw	r30, 0x01	; 1
    2a40:	10 82       	st	Z, r1
    2a42:	31 96       	adiw	r30, 0x01	; 1
    2a44:	10 82       	st	Z, r1
    2a46:	41 e0       	ldi	r20, 0x01	; 1
    2a48:	6f ef       	ldi	r22, 0xFF	; 255
    2a4a:	0e 94 c8 22 	call	0x4590	; 0x4590 <VL53L0X_WrByte>
    2a4e:	81 11       	cpse	r24, r1
    2a50:	cd c1       	rjmp	.+922    	; 0x2dec <VL53L0X_perform_ref_spad_management+0x432>
    2a52:	40 e0       	ldi	r20, 0x00	; 0
    2a54:	6f e4       	ldi	r22, 0x4F	; 79
    2a56:	c4 01       	movw	r24, r8
    2a58:	0e 94 c8 22 	call	0x4590	; 0x4590 <VL53L0X_WrByte>
    2a5c:	81 11       	cpse	r24, r1
    2a5e:	c6 c1       	rjmp	.+908    	; 0x2dec <VL53L0X_perform_ref_spad_management+0x432>
    2a60:	4c e2       	ldi	r20, 0x2C	; 44
    2a62:	6e e4       	ldi	r22, 0x4E	; 78
    2a64:	c4 01       	movw	r24, r8
    2a66:	0e 94 c8 22 	call	0x4590	; 0x4590 <VL53L0X_WrByte>
    2a6a:	81 11       	cpse	r24, r1
    2a6c:	bf c1       	rjmp	.+894    	; 0x2dec <VL53L0X_perform_ref_spad_management+0x432>
    2a6e:	40 e0       	ldi	r20, 0x00	; 0
    2a70:	6f ef       	ldi	r22, 0xFF	; 255
    2a72:	c4 01       	movw	r24, r8
    2a74:	0e 94 c8 22 	call	0x4590	; 0x4590 <VL53L0X_WrByte>
    2a78:	81 11       	cpse	r24, r1
    2a7a:	b8 c1       	rjmp	.+880    	; 0x2dec <VL53L0X_perform_ref_spad_management+0x432>
    2a7c:	44 eb       	ldi	r20, 0xB4	; 180
    2a7e:	66 eb       	ldi	r22, 0xB6	; 182
    2a80:	c4 01       	movw	r24, r8
    2a82:	0e 94 c8 22 	call	0x4590	; 0x4590 <VL53L0X_WrByte>
    2a86:	81 11       	cpse	r24, r1
    2a88:	b1 c1       	rjmp	.+866    	; 0x2dec <VL53L0X_perform_ref_spad_management+0x432>
    2a8a:	40 e0       	ldi	r20, 0x00	; 0
    2a8c:	60 e8       	ldi	r22, 0x80	; 128
    2a8e:	c4 01       	movw	r24, r8
    2a90:	0e 94 c8 22 	call	0x4590	; 0x4590 <VL53L0X_WrByte>
    2a94:	81 11       	cpse	r24, r1
    2a96:	aa c1       	rjmp	.+852    	; 0x2dec <VL53L0X_perform_ref_spad_management+0x432>
    2a98:	20 e0       	ldi	r18, 0x00	; 0
    2a9a:	ae 01       	movw	r20, r28
    2a9c:	4f 5e       	subi	r20, 0xEF	; 239
    2a9e:	5f 4f       	sbci	r21, 0xFF	; 255
    2aa0:	be 01       	movw	r22, r28
    2aa2:	6e 5e       	subi	r22, 0xEE	; 238
    2aa4:	7f 4f       	sbci	r23, 0xFF	; 255
    2aa6:	c4 01       	movw	r24, r8
    2aa8:	0e 94 ad 14 	call	0x295a	; 0x295a <VL53L0X_perform_ref_calibration>
    2aac:	81 11       	cpse	r24, r1
    2aae:	9e c1       	rjmp	.+828    	; 0x2dec <VL53L0X_perform_ref_spad_management+0x432>
    2ab0:	1b 86       	std	Y+11, r1	; 0x0b
    2ab2:	1c 86       	std	Y+12, r1	; 0x0c
    2ab4:	1d 86       	std	Y+13, r1	; 0x0d
    2ab6:	1e 86       	std	Y+14, r1	; 0x0e
    2ab8:	94 01       	movw	r18, r8
    2aba:	29 5e       	subi	r18, 0xE9	; 233
    2abc:	3e 4f       	sbci	r19, 0xFE	; 254
    2abe:	3a 8f       	std	Y+26, r19	; 0x1a
    2ac0:	29 8f       	std	Y+25, r18	; 0x19
    2ac2:	3e 01       	movw	r6, r28
    2ac4:	3b e0       	ldi	r19, 0x0B	; 11
    2ac6:	63 0e       	add	r6, r19
    2ac8:	71 1c       	adc	r7, r1
    2aca:	7f 92       	push	r7
    2acc:	6f 92       	push	r6
    2ace:	1f 92       	push	r1
    2ad0:	1f 92       	push	r1
    2ad2:	1f 92       	push	r1
    2ad4:	83 e0       	ldi	r24, 0x03	; 3
    2ad6:	8f 93       	push	r24
    2ad8:	1f 92       	push	r1
    2ada:	1f 92       	push	r1
    2adc:	1f 92       	push	r1
    2ade:	1f 92       	push	r1
    2ae0:	44 eb       	ldi	r20, 0xB4	; 180
    2ae2:	a4 2e       	mov	r10, r20
    2ae4:	b1 2c       	mov	r11, r1
    2ae6:	c1 2c       	mov	r12, r1
    2ae8:	d1 2c       	mov	r13, r1
    2aea:	16 e0       	ldi	r17, 0x06	; 6
    2aec:	e1 2e       	mov	r14, r17
    2aee:	f1 2c       	mov	r15, r1
    2af0:	00 e0       	ldi	r16, 0x00	; 0
    2af2:	10 e0       	ldi	r17, 0x00	; 0
    2af4:	91 01       	movw	r18, r2
    2af6:	49 8d       	ldd	r20, Y+25	; 0x19
    2af8:	5a 8d       	ldd	r21, Y+26	; 0x1a
    2afa:	60 e0       	ldi	r22, 0x00	; 0
    2afc:	c4 01       	movw	r24, r8
    2afe:	0e 94 9c 11 	call	0x2338	; 0x2338 <_Z16enable_ref_spadsP13VL53L0X_Dev_thPhS1_mmmmPm>
    2b02:	0f b6       	in	r0, 0x3f	; 63
    2b04:	f8 94       	cli
    2b06:	de bf       	out	0x3e, r29	; 62
    2b08:	0f be       	out	0x3f, r0	; 63
    2b0a:	cd bf       	out	0x3d, r28	; 61
    2b0c:	81 11       	cpse	r24, r1
    2b0e:	6e c1       	rjmp	.+732    	; 0x2dec <VL53L0X_perform_ref_spad_management+0x432>
    2b10:	ab 84       	ldd	r10, Y+11	; 0x0b
    2b12:	bc 84       	ldd	r11, Y+12	; 0x0c
    2b14:	cd 84       	ldd	r12, Y+13	; 0x0d
    2b16:	de 84       	ldd	r13, Y+14	; 0x0e
    2b18:	be 01       	movw	r22, r28
    2b1a:	61 5f       	subi	r22, 0xF1	; 241
    2b1c:	7f 4f       	sbci	r23, 0xFF	; 255
    2b1e:	c4 01       	movw	r24, r8
    2b20:	0e 94 68 12 	call	0x24d0	; 0x24d0 <_Z30perform_ref_signal_measurementP13VL53L0X_Dev_tPj>
    2b24:	81 11       	cpse	r24, r1
    2b26:	62 c1       	rjmp	.+708    	; 0x2dec <VL53L0X_perform_ref_spad_management+0x432>
    2b28:	8f 85       	ldd	r24, Y+15	; 0x0f
    2b2a:	98 89       	ldd	r25, Y+16	; 0x10
    2b2c:	ab 89       	ldd	r26, Y+19	; 0x13
    2b2e:	bc 89       	ldd	r27, Y+20	; 0x14
    2b30:	a8 17       	cp	r26, r24
    2b32:	b9 07       	cpc	r27, r25
    2b34:	08 f0       	brcs	.+2      	; 0x2b38 <VL53L0X_perform_ref_spad_management+0x17e>
    2b36:	5f c0       	rjmp	.+190    	; 0x2bf6 <VL53L0X_perform_ref_spad_management+0x23c>
    2b38:	f1 01       	movw	r30, r2
    2b3a:	10 82       	st	Z, r1
    2b3c:	d2 01       	movw	r26, r4
    2b3e:	1c 92       	st	X, r1
    2b40:	32 96       	adiw	r30, 0x02	; 2
    2b42:	10 82       	st	Z, r1
    2b44:	31 96       	adiw	r30, 0x01	; 1
    2b46:	10 82       	st	Z, r1
    2b48:	31 96       	adiw	r30, 0x01	; 1
    2b4a:	10 82       	st	Z, r1
    2b4c:	31 96       	adiw	r30, 0x01	; 1
    2b4e:	10 82       	st	Z, r1
    2b50:	c6 01       	movw	r24, r12
    2b52:	b5 01       	movw	r22, r10
    2b54:	6c 54       	subi	r22, 0x4C	; 76
    2b56:	7f 4f       	sbci	r23, 0xFF	; 255
    2b58:	8f 4f       	sbci	r24, 0xFF	; 255
    2b5a:	9f 4f       	sbci	r25, 0xFF	; 255
    2b5c:	0e 94 38 11 	call	0x2270	; 0x2270 <_Z11is_aperturem>
    2b60:	81 11       	cpse	r24, r1
    2b62:	0c c0       	rjmp	.+24     	; 0x2b7c <VL53L0X_perform_ref_spad_management+0x1c2>
    2b64:	bc e2       	ldi	r27, 0x2C	; 44
    2b66:	ab 16       	cp	r10, r27
    2b68:	b1 04       	cpc	r11, r1
    2b6a:	c1 04       	cpc	r12, r1
    2b6c:	d1 04       	cpc	r13, r1
    2b6e:	30 f4       	brcc	.+12     	; 0x2b7c <VL53L0X_perform_ref_spad_management+0x1c2>
    2b70:	bf ef       	ldi	r27, 0xFF	; 255
    2b72:	ab 1a       	sub	r10, r27
    2b74:	bb 0a       	sbc	r11, r27
    2b76:	cb 0a       	sbc	r12, r27
    2b78:	db 0a       	sbc	r13, r27
    2b7a:	ea cf       	rjmp	.-44     	; 0x2b50 <VL53L0X_perform_ref_spad_management+0x196>
    2b7c:	7f 92       	push	r7
    2b7e:	6f 92       	push	r6
    2b80:	1f 92       	push	r1
    2b82:	1f 92       	push	r1
    2b84:	1f 92       	push	r1
    2b86:	83 e0       	ldi	r24, 0x03	; 3
    2b88:	8f 93       	push	r24
    2b8a:	df 92       	push	r13
    2b8c:	cf 92       	push	r12
    2b8e:	bf 92       	push	r11
    2b90:	af 92       	push	r10
    2b92:	84 eb       	ldi	r24, 0xB4	; 180
    2b94:	a8 2e       	mov	r10, r24
    2b96:	b1 2c       	mov	r11, r1
    2b98:	c1 2c       	mov	r12, r1
    2b9a:	d1 2c       	mov	r13, r1
    2b9c:	16 e0       	ldi	r17, 0x06	; 6
    2b9e:	e1 2e       	mov	r14, r17
    2ba0:	f1 2c       	mov	r15, r1
    2ba2:	00 e0       	ldi	r16, 0x00	; 0
    2ba4:	10 e0       	ldi	r17, 0x00	; 0
    2ba6:	91 01       	movw	r18, r2
    2ba8:	49 8d       	ldd	r20, Y+25	; 0x19
    2baa:	5a 8d       	ldd	r21, Y+26	; 0x1a
    2bac:	61 e0       	ldi	r22, 0x01	; 1
    2bae:	c4 01       	movw	r24, r8
    2bb0:	0e 94 9c 11 	call	0x2338	; 0x2338 <_Z16enable_ref_spadsP13VL53L0X_Dev_thPhS1_mmmmPm>
    2bb4:	0f b6       	in	r0, 0x3f	; 63
    2bb6:	f8 94       	cli
    2bb8:	de bf       	out	0x3e, r29	; 62
    2bba:	0f be       	out	0x3f, r0	; 63
    2bbc:	cd bf       	out	0x3d, r28	; 61
    2bbe:	81 11       	cpse	r24, r1
    2bc0:	15 c1       	rjmp	.+554    	; 0x2dec <VL53L0X_perform_ref_spad_management+0x432>
    2bc2:	ab 84       	ldd	r10, Y+11	; 0x0b
    2bc4:	bc 84       	ldd	r11, Y+12	; 0x0c
    2bc6:	cd 84       	ldd	r12, Y+13	; 0x0d
    2bc8:	de 84       	ldd	r13, Y+14	; 0x0e
    2bca:	be 01       	movw	r22, r28
    2bcc:	61 5f       	subi	r22, 0xF1	; 241
    2bce:	7f 4f       	sbci	r23, 0xFF	; 255
    2bd0:	c4 01       	movw	r24, r8
    2bd2:	0e 94 68 12 	call	0x24d0	; 0x24d0 <_Z30perform_ref_signal_measurementP13VL53L0X_Dev_tPj>
    2bd6:	81 11       	cpse	r24, r1
    2bd8:	09 c1       	rjmp	.+530    	; 0x2dec <VL53L0X_perform_ref_spad_management+0x432>
    2bda:	8f 85       	ldd	r24, Y+15	; 0x0f
    2bdc:	98 89       	ldd	r25, Y+16	; 0x10
    2bde:	eb 89       	ldd	r30, Y+19	; 0x13
    2be0:	fc 89       	ldd	r31, Y+20	; 0x14
    2be2:	e8 17       	cp	r30, r24
    2be4:	f9 07       	cpc	r31, r25
    2be6:	80 f4       	brcc	.+32     	; 0x2c08 <VL53L0X_perform_ref_spad_management+0x24e>
    2be8:	21 e0       	ldi	r18, 0x01	; 1
    2bea:	33 e0       	ldi	r19, 0x03	; 3
    2bec:	43 2e       	mov	r4, r19
    2bee:	51 2c       	mov	r5, r1
    2bf0:	61 2c       	mov	r6, r1
    2bf2:	71 2c       	mov	r7, r1
    2bf4:	0d c0       	rjmp	.+26     	; 0x2c10 <VL53L0X_perform_ref_spad_management+0x256>
    2bf6:	20 e0       	ldi	r18, 0x00	; 0
    2bf8:	41 2c       	mov	r4, r1
    2bfa:	51 2c       	mov	r5, r1
    2bfc:	32 01       	movw	r6, r4
    2bfe:	1d 8a       	std	Y+21, r1	; 0x15
    2c00:	1e 8a       	std	Y+22, r1	; 0x16
    2c02:	1f 8a       	std	Y+23, r1	; 0x17
    2c04:	18 8e       	std	Y+24, r1	; 0x18
    2c06:	0c c0       	rjmp	.+24     	; 0x2c20 <VL53L0X_perform_ref_spad_management+0x266>
    2c08:	20 e0       	ldi	r18, 0x00	; 0
    2c0a:	41 2c       	mov	r4, r1
    2c0c:	51 2c       	mov	r5, r1
    2c0e:	32 01       	movw	r6, r4
    2c10:	81 e0       	ldi	r24, 0x01	; 1
    2c12:	90 e0       	ldi	r25, 0x00	; 0
    2c14:	a0 e0       	ldi	r26, 0x00	; 0
    2c16:	b0 e0       	ldi	r27, 0x00	; 0
    2c18:	8d 8b       	std	Y+21, r24	; 0x15
    2c1a:	9e 8b       	std	Y+22, r25	; 0x16
    2c1c:	af 8b       	std	Y+23, r26	; 0x17
    2c1e:	b8 8f       	std	Y+24, r27	; 0x18
    2c20:	8f 85       	ldd	r24, Y+15	; 0x0f
    2c22:	98 89       	ldd	r25, Y+16	; 0x10
    2c24:	ab 89       	ldd	r26, Y+19	; 0x13
    2c26:	bc 89       	ldd	r27, Y+20	; 0x14
    2c28:	8a 17       	cp	r24, r26
    2c2a:	9b 07       	cpc	r25, r27
    2c2c:	08 f0       	brcs	.+2      	; 0x2c30 <VL53L0X_perform_ref_spad_management+0x276>
    2c2e:	c4 c0       	rjmp	.+392    	; 0x2db8 <VL53L0X_perform_ref_spad_management+0x3fe>
    2c30:	26 e0       	ldi	r18, 0x06	; 6
    2c32:	f1 01       	movw	r30, r2
    2c34:	de 01       	movw	r26, r28
    2c36:	11 96       	adiw	r26, 0x01	; 1
    2c38:	01 90       	ld	r0, Z+
    2c3a:	0d 92       	st	X+, r0
    2c3c:	2a 95       	dec	r18
    2c3e:	e1 f7       	brne	.-8      	; 0x2c38 <VL53L0X_perform_ref_spad_management+0x27e>
    2c40:	ab 89       	ldd	r26, Y+19	; 0x13
    2c42:	bc 89       	ldd	r27, Y+20	; 0x14
    2c44:	8a 1b       	sub	r24, r26
    2c46:	9b 0b       	sbc	r25, r27
    2c48:	97 ff       	sbrs	r25, 7
    2c4a:	03 c0       	rjmp	.+6      	; 0x2c52 <VL53L0X_perform_ref_spad_management+0x298>
    2c4c:	91 95       	neg	r25
    2c4e:	81 95       	neg	r24
    2c50:	91 09       	sbc	r25, r1
    2c52:	9c 01       	movw	r18, r24
    2c54:	99 0f       	add	r25, r25
    2c56:	44 0b       	sbc	r20, r20
    2c58:	55 0b       	sbc	r21, r21
    2c5a:	2f 8f       	std	Y+31, r18	; 0x1f
    2c5c:	38 a3       	std	Y+32, r19	; 0x20
    2c5e:	49 a3       	std	Y+33, r20	; 0x21
    2c60:	5a a3       	std	Y+34, r21	; 0x22
    2c62:	83 e0       	ldi	r24, 0x03	; 3
    2c64:	90 e0       	ldi	r25, 0x00	; 0
    2c66:	a0 e0       	ldi	r26, 0x00	; 0
    2c68:	b0 e0       	ldi	r27, 0x00	; 0
    2c6a:	8b 8f       	std	Y+27, r24	; 0x1b
    2c6c:	9c 8f       	std	Y+28, r25	; 0x1c
    2c6e:	ad 8f       	std	Y+29, r26	; 0x1d
    2c70:	be 8f       	std	Y+30, r27	; 0x1e
    2c72:	d4 01       	movw	r26, r8
    2c74:	af 5e       	subi	r26, 0xEF	; 239
    2c76:	be 4f       	sbci	r27, 0xFE	; 254
    2c78:	b8 a7       	std	Y+40, r27	; 0x28
    2c7a:	af a3       	std	Y+39, r26	; 0x27
    2c7c:	fe 01       	movw	r30, r28
    2c7e:	37 96       	adiw	r30, 0x07	; 7
    2c80:	7f 01       	movw	r14, r30
    2c82:	96 01       	movw	r18, r12
    2c84:	85 01       	movw	r16, r10
    2c86:	46 e0       	ldi	r20, 0x06	; 6
    2c88:	50 e0       	ldi	r21, 0x00	; 0
    2c8a:	60 e0       	ldi	r22, 0x00	; 0
    2c8c:	70 e0       	ldi	r23, 0x00	; 0
    2c8e:	89 8d       	ldd	r24, Y+25	; 0x19
    2c90:	9a 8d       	ldd	r25, Y+26	; 0x1a
    2c92:	0e 94 93 10 	call	0x2126	; 0x2126 <_Z18get_next_good_spadPhmmPl>
    2c96:	cf 80       	ldd	r12, Y+7	; 0x07
    2c98:	d8 84       	ldd	r13, Y+8	; 0x08
    2c9a:	e9 84       	ldd	r14, Y+9	; 0x09
    2c9c:	fa 84       	ldd	r15, Y+10	; 0x0a
    2c9e:	ff ef       	ldi	r31, 0xFF	; 255
    2ca0:	cf 16       	cp	r12, r31
    2ca2:	df 06       	cpc	r13, r31
    2ca4:	ef 06       	cpc	r14, r31
    2ca6:	ff 06       	cpc	r15, r31
    2ca8:	09 f4       	brne	.+2      	; 0x2cac <VL53L0X_perform_ref_spad_management+0x2f2>
    2caa:	9f c0       	rjmp	.+318    	; 0x2dea <VL53L0X_perform_ref_spad_management+0x430>
    2cac:	4b 8c       	ldd	r4, Y+27	; 0x1b
    2cae:	5c 8c       	ldd	r5, Y+28	; 0x1c
    2cb0:	6d 8c       	ldd	r6, Y+29	; 0x1d
    2cb2:	7e 8c       	ldd	r7, Y+30	; 0x1e
    2cb4:	2f ef       	ldi	r18, 0xFF	; 255
    2cb6:	42 1a       	sub	r4, r18
    2cb8:	52 0a       	sbc	r5, r18
    2cba:	62 0a       	sbc	r6, r18
    2cbc:	72 0a       	sbc	r7, r18
    2cbe:	c7 01       	movw	r24, r14
    2cc0:	b6 01       	movw	r22, r12
    2cc2:	6c 54       	subi	r22, 0x4C	; 76
    2cc4:	7f 4f       	sbci	r23, 0xFF	; 255
    2cc6:	8f 4f       	sbci	r24, 0xFF	; 255
    2cc8:	9f 4f       	sbci	r25, 0xFF	; 255
    2cca:	0e 94 38 11 	call	0x2270	; 0x2270 <_Z11is_aperturem>
    2cce:	90 e0       	ldi	r25, 0x00	; 0
    2cd0:	a0 e0       	ldi	r26, 0x00	; 0
    2cd2:	b0 e0       	ldi	r27, 0x00	; 0
    2cd4:	2d 89       	ldd	r18, Y+21	; 0x15
    2cd6:	3e 89       	ldd	r19, Y+22	; 0x16
    2cd8:	4f 89       	ldd	r20, Y+23	; 0x17
    2cda:	58 8d       	ldd	r21, Y+24	; 0x18
    2cdc:	82 17       	cp	r24, r18
    2cde:	93 07       	cpc	r25, r19
    2ce0:	a4 07       	cpc	r26, r20
    2ce2:	b5 07       	cpc	r27, r21
    2ce4:	09 f0       	breq	.+2      	; 0x2ce8 <VL53L0X_perform_ref_spad_management+0x32e>
    2ce6:	81 c0       	rjmp	.+258    	; 0x2dea <VL53L0X_perform_ref_spad_management+0x430>
    2ce8:	97 01       	movw	r18, r14
    2cea:	86 01       	movw	r16, r12
    2cec:	46 e0       	ldi	r20, 0x06	; 6
    2cee:	50 e0       	ldi	r21, 0x00	; 0
    2cf0:	60 e0       	ldi	r22, 0x00	; 0
    2cf2:	70 e0       	ldi	r23, 0x00	; 0
    2cf4:	c1 01       	movw	r24, r2
    2cf6:	0e 94 54 11 	call	0x22a8	; 0x22a8 <_Z15enable_spad_bitPhmm>
    2cfa:	81 11       	cpse	r24, r1
    2cfc:	77 c0       	rjmp	.+238    	; 0x2dec <VL53L0X_perform_ref_spad_management+0x432>
    2cfe:	56 01       	movw	r10, r12
    2d00:	67 01       	movw	r12, r14
    2d02:	3f ef       	ldi	r19, 0xFF	; 255
    2d04:	a3 1a       	sub	r10, r19
    2d06:	b3 0a       	sbc	r11, r19
    2d08:	c3 0a       	sbc	r12, r19
    2d0a:	d3 0a       	sbc	r13, r19
    2d0c:	b1 01       	movw	r22, r2
    2d0e:	c4 01       	movw	r24, r8
    2d10:	0e 94 82 11 	call	0x2304	; 0x2304 <_Z16set_ref_spad_mapP13VL53L0X_Dev_tPh>
    2d14:	81 11       	cpse	r24, r1
    2d16:	6a c0       	rjmp	.+212    	; 0x2dec <VL53L0X_perform_ref_spad_management+0x432>
    2d18:	be 01       	movw	r22, r28
    2d1a:	61 5f       	subi	r22, 0xF1	; 241
    2d1c:	7f 4f       	sbci	r23, 0xFF	; 255
    2d1e:	c4 01       	movw	r24, r8
    2d20:	0e 94 68 12 	call	0x24d0	; 0x24d0 <_Z30perform_ref_signal_measurementP13VL53L0X_Dev_tPj>
    2d24:	81 11       	cpse	r24, r1
    2d26:	62 c0       	rjmp	.+196    	; 0x2dec <VL53L0X_perform_ref_spad_management+0x432>
    2d28:	8f 85       	ldd	r24, Y+15	; 0x0f
    2d2a:	98 89       	ldd	r25, Y+16	; 0x10
    2d2c:	ac 01       	movw	r20, r24
    2d2e:	ab 89       	ldd	r26, Y+19	; 0x13
    2d30:	bc 89       	ldd	r27, Y+20	; 0x14
    2d32:	4a 1b       	sub	r20, r26
    2d34:	5b 0b       	sbc	r21, r27
    2d36:	57 ff       	sbrs	r21, 7
    2d38:	03 c0       	rjmp	.+6      	; 0x2d40 <VL53L0X_perform_ref_spad_management+0x386>
    2d3a:	51 95       	neg	r21
    2d3c:	41 95       	neg	r20
    2d3e:	51 09       	sbc	r21, r1
    2d40:	05 2e       	mov	r0, r21
    2d42:	00 0c       	add	r0, r0
    2d44:	66 0b       	sbc	r22, r22
    2d46:	77 0b       	sbc	r23, r23
    2d48:	eb 89       	ldd	r30, Y+19	; 0x13
    2d4a:	fc 89       	ldd	r31, Y+20	; 0x14
    2d4c:	e8 17       	cp	r30, r24
    2d4e:	f9 07       	cpc	r31, r25
    2d50:	00 f5       	brcc	.+64     	; 0x2d92 <VL53L0X_perform_ref_spad_management+0x3d8>
    2d52:	8f 8d       	ldd	r24, Y+31	; 0x1f
    2d54:	98 a1       	ldd	r25, Y+32	; 0x20
    2d56:	a9 a1       	ldd	r26, Y+33	; 0x21
    2d58:	ba a1       	ldd	r27, Y+34	; 0x22
    2d5a:	84 17       	cp	r24, r20
    2d5c:	95 07       	cpc	r25, r21
    2d5e:	a6 07       	cpc	r26, r22
    2d60:	b7 07       	cpc	r27, r23
    2d62:	48 f5       	brcc	.+82     	; 0x2db6 <VL53L0X_perform_ref_spad_management+0x3fc>
    2d64:	be 01       	movw	r22, r28
    2d66:	6f 5f       	subi	r22, 0xFF	; 255
    2d68:	7f 4f       	sbci	r23, 0xFF	; 255
    2d6a:	c4 01       	movw	r24, r8
    2d6c:	0e 94 82 11 	call	0x2304	; 0x2304 <_Z16set_ref_spad_mapP13VL53L0X_Dev_tPh>
    2d70:	96 e0       	ldi	r25, 0x06	; 6
    2d72:	fe 01       	movw	r30, r28
    2d74:	31 96       	adiw	r30, 0x01	; 1
    2d76:	d4 01       	movw	r26, r8
    2d78:	af 5e       	subi	r26, 0xEF	; 239
    2d7a:	be 4f       	sbci	r27, 0xFE	; 254
    2d7c:	01 90       	ld	r0, Z+
    2d7e:	0d 92       	st	X+, r0
    2d80:	9a 95       	dec	r25
    2d82:	e1 f7       	brne	.-8      	; 0x2d7c <VL53L0X_perform_ref_spad_management+0x3c2>
    2d84:	81 11       	cpse	r24, r1
    2d86:	32 c0       	rjmp	.+100    	; 0x2dec <VL53L0X_perform_ref_spad_management+0x432>
    2d88:	4b 8c       	ldd	r4, Y+27	; 0x1b
    2d8a:	5c 8c       	ldd	r5, Y+28	; 0x1c
    2d8c:	6d 8c       	ldd	r6, Y+29	; 0x1d
    2d8e:	7e 8c       	ldd	r7, Y+30	; 0x1e
    2d90:	12 c0       	rjmp	.+36     	; 0x2db6 <VL53L0X_perform_ref_spad_management+0x3fc>
    2d92:	86 e0       	ldi	r24, 0x06	; 6
    2d94:	ef a1       	ldd	r30, Y+39	; 0x27
    2d96:	f8 a5       	ldd	r31, Y+40	; 0x28
    2d98:	de 01       	movw	r26, r28
    2d9a:	11 96       	adiw	r26, 0x01	; 1
    2d9c:	01 90       	ld	r0, Z+
    2d9e:	0d 92       	st	X+, r0
    2da0:	8a 95       	dec	r24
    2da2:	e1 f7       	brne	.-8      	; 0x2d9c <VL53L0X_perform_ref_spad_management+0x3e2>
    2da4:	4b 8e       	std	Y+27, r4	; 0x1b
    2da6:	5c 8e       	std	Y+28, r5	; 0x1c
    2da8:	6d 8e       	std	Y+29, r6	; 0x1d
    2daa:	7e 8e       	std	Y+30, r7	; 0x1e
    2dac:	4f 8f       	std	Y+31, r20	; 0x1f
    2dae:	58 a3       	std	Y+32, r21	; 0x20
    2db0:	69 a3       	std	Y+33, r22	; 0x21
    2db2:	7a a3       	std	Y+34, r23	; 0x22
    2db4:	63 cf       	rjmp	.-314    	; 0x2c7c <VL53L0X_perform_ref_spad_management+0x2c2>
    2db6:	2d 89       	ldd	r18, Y+21	; 0x15
    2db8:	ab a1       	ldd	r26, Y+35	; 0x23
    2dba:	bc a1       	ldd	r27, Y+36	; 0x24
    2dbc:	4d 92       	st	X+, r4
    2dbe:	5d 92       	st	X+, r5
    2dc0:	6d 92       	st	X+, r6
    2dc2:	7c 92       	st	X, r7
    2dc4:	13 97       	sbiw	r26, 0x03	; 3
    2dc6:	ed a1       	ldd	r30, Y+37	; 0x25
    2dc8:	fe a1       	ldd	r31, Y+38	; 0x26
    2dca:	20 83       	st	Z, r18
    2dcc:	f4 01       	movw	r30, r8
    2dce:	ec 5f       	subi	r30, 0xFC	; 252
    2dd0:	fe 4f       	sbci	r31, 0xFE	; 254
    2dd2:	81 e0       	ldi	r24, 0x01	; 1
    2dd4:	80 83       	st	Z, r24
    2dd6:	32 97       	sbiw	r30, 0x02	; 2
    2dd8:	8c 91       	ld	r24, X
    2dda:	80 83       	st	Z, r24
    2ddc:	ad a1       	ldd	r26, Y+37	; 0x25
    2dde:	be a1       	ldd	r27, Y+38	; 0x26
    2de0:	8c 91       	ld	r24, X
    2de2:	31 96       	adiw	r30, 0x01	; 1
    2de4:	80 83       	st	Z, r24
    2de6:	80 e0       	ldi	r24, 0x00	; 0
    2de8:	01 c0       	rjmp	.+2      	; 0x2dec <VL53L0X_perform_ref_spad_management+0x432>
    2dea:	8e ec       	ldi	r24, 0xCE	; 206
    2dec:	a8 96       	adiw	r28, 0x28	; 40
    2dee:	0f b6       	in	r0, 0x3f	; 63
    2df0:	f8 94       	cli
    2df2:	de bf       	out	0x3e, r29	; 62
    2df4:	0f be       	out	0x3f, r0	; 63
    2df6:	cd bf       	out	0x3d, r28	; 61
    2df8:	df 91       	pop	r29
    2dfa:	cf 91       	pop	r28
    2dfc:	1f 91       	pop	r17
    2dfe:	0f 91       	pop	r16
    2e00:	ff 90       	pop	r15
    2e02:	ef 90       	pop	r14
    2e04:	df 90       	pop	r13
    2e06:	cf 90       	pop	r12
    2e08:	bf 90       	pop	r11
    2e0a:	af 90       	pop	r10
    2e0c:	9f 90       	pop	r9
    2e0e:	8f 90       	pop	r8
    2e10:	7f 90       	pop	r7
    2e12:	6f 90       	pop	r6
    2e14:	5f 90       	pop	r5
    2e16:	4f 90       	pop	r4
    2e18:	3f 90       	pop	r3
    2e1a:	2f 90       	pop	r2
    2e1c:	08 95       	ret

00002e1e <VL53L0X_measurement_poll_for_completion>:
    2e1e:	ef 92       	push	r14
    2e20:	ff 92       	push	r15
    2e22:	0f 93       	push	r16
    2e24:	1f 93       	push	r17
    2e26:	cf 93       	push	r28
    2e28:	df 93       	push	r29
    2e2a:	1f 92       	push	r1
    2e2c:	cd b7       	in	r28, 0x3d	; 61
    2e2e:	de b7       	in	r29, 0x3e	; 62
    2e30:	7c 01       	movw	r14, r24
    2e32:	19 82       	std	Y+1, r1	; 0x01
    2e34:	00 e0       	ldi	r16, 0x00	; 0
    2e36:	10 e0       	ldi	r17, 0x00	; 0
    2e38:	be 01       	movw	r22, r28
    2e3a:	6f 5f       	subi	r22, 0xFF	; 255
    2e3c:	7f 4f       	sbci	r23, 0xFF	; 255
    2e3e:	c7 01       	movw	r24, r14
    2e40:	0e 94 2b 10 	call	0x2056	; 0x2056 <VL53L0X_GetMeasurementDataReady>
    2e44:	81 11       	cpse	r24, r1
    2e46:	0d c0       	rjmp	.+26     	; 0x2e62 <VL53L0X_measurement_poll_for_completion+0x44>
    2e48:	99 81       	ldd	r25, Y+1	; 0x01
    2e4a:	91 30       	cpi	r25, 0x01	; 1
    2e4c:	51 f0       	breq	.+20     	; 0x2e62 <VL53L0X_measurement_poll_for_completion+0x44>
    2e4e:	0f 5f       	subi	r16, 0xFF	; 255
    2e50:	1f 4f       	sbci	r17, 0xFF	; 255
    2e52:	08 3c       	cpi	r16, 0xC8	; 200
    2e54:	11 05       	cpc	r17, r1
    2e56:	21 f0       	breq	.+8      	; 0x2e60 <VL53L0X_measurement_poll_for_completion+0x42>
    2e58:	c7 01       	movw	r24, r14
    2e5a:	0e 94 31 23 	call	0x4662	; 0x4662 <VL53L0X_PollingDelay>
    2e5e:	ec cf       	rjmp	.-40     	; 0x2e38 <VL53L0X_measurement_poll_for_completion+0x1a>
    2e60:	89 ef       	ldi	r24, 0xF9	; 249
    2e62:	0f 90       	pop	r0
    2e64:	df 91       	pop	r29
    2e66:	cf 91       	pop	r28
    2e68:	1f 91       	pop	r17
    2e6a:	0f 91       	pop	r16
    2e6c:	ff 90       	pop	r15
    2e6e:	ef 90       	pop	r14
    2e70:	08 95       	ret

00002e72 <_Z26VL53L0X_device_read_strobeP13VL53L0X_Dev_t>:
    2e72:	cf 92       	push	r12
    2e74:	df 92       	push	r13
    2e76:	ef 92       	push	r14
    2e78:	ff 92       	push	r15
    2e7a:	1f 93       	push	r17
    2e7c:	cf 93       	push	r28
    2e7e:	df 93       	push	r29
    2e80:	1f 92       	push	r1
    2e82:	cd b7       	in	r28, 0x3d	; 61
    2e84:	de b7       	in	r29, 0x3e	; 62
    2e86:	7c 01       	movw	r14, r24
    2e88:	40 e0       	ldi	r20, 0x00	; 0
    2e8a:	63 e8       	ldi	r22, 0x83	; 131
    2e8c:	0e 94 c8 22 	call	0x4590	; 0x4590 <VL53L0X_WrByte>
    2e90:	18 2f       	mov	r17, r24
    2e92:	81 11       	cpse	r24, r1
    2e94:	17 c0       	rjmp	.+46     	; 0x2ec4 <_Z26VL53L0X_device_read_strobeP13VL53L0X_Dev_t+0x52>
    2e96:	c1 2c       	mov	r12, r1
    2e98:	d1 2c       	mov	r13, r1
    2e9a:	ae 01       	movw	r20, r28
    2e9c:	4f 5f       	subi	r20, 0xFF	; 255
    2e9e:	5f 4f       	sbci	r21, 0xFF	; 255
    2ea0:	63 e8       	ldi	r22, 0x83	; 131
    2ea2:	c7 01       	movw	r24, r14
    2ea4:	0e 94 0d 23 	call	0x461a	; 0x461a <VL53L0X_RdByte>
    2ea8:	18 2f       	mov	r17, r24
    2eaa:	89 81       	ldd	r24, Y+1	; 0x01
    2eac:	81 11       	cpse	r24, r1
    2eae:	0a c0       	rjmp	.+20     	; 0x2ec4 <_Z26VL53L0X_device_read_strobeP13VL53L0X_Dev_t+0x52>
    2eb0:	11 11       	cpse	r17, r1
    2eb2:	08 c0       	rjmp	.+16     	; 0x2ec4 <_Z26VL53L0X_device_read_strobeP13VL53L0X_Dev_t+0x52>
    2eb4:	8f ef       	ldi	r24, 0xFF	; 255
    2eb6:	c8 1a       	sub	r12, r24
    2eb8:	d8 0a       	sbc	r13, r24
    2eba:	88 ec       	ldi	r24, 0xC8	; 200
    2ebc:	c8 16       	cp	r12, r24
    2ebe:	d1 04       	cpc	r13, r1
    2ec0:	61 f7       	brne	.-40     	; 0x2e9a <_Z26VL53L0X_device_read_strobeP13VL53L0X_Dev_t+0x28>
    2ec2:	19 ef       	ldi	r17, 0xF9	; 249
    2ec4:	41 e0       	ldi	r20, 0x01	; 1
    2ec6:	63 e8       	ldi	r22, 0x83	; 131
    2ec8:	c7 01       	movw	r24, r14
    2eca:	0e 94 c8 22 	call	0x4590	; 0x4590 <VL53L0X_WrByte>
    2ece:	81 2b       	or	r24, r17
    2ed0:	0f 90       	pop	r0
    2ed2:	df 91       	pop	r29
    2ed4:	cf 91       	pop	r28
    2ed6:	1f 91       	pop	r17
    2ed8:	ff 90       	pop	r15
    2eda:	ef 90       	pop	r14
    2edc:	df 90       	pop	r13
    2ede:	cf 90       	pop	r12
    2ee0:	08 95       	ret

00002ee2 <VL53L0X_get_info_from_device>:
    2ee2:	2f 92       	push	r2
    2ee4:	3f 92       	push	r3
    2ee6:	4f 92       	push	r4
    2ee8:	5f 92       	push	r5
    2eea:	6f 92       	push	r6
    2eec:	7f 92       	push	r7
    2eee:	8f 92       	push	r8
    2ef0:	9f 92       	push	r9
    2ef2:	af 92       	push	r10
    2ef4:	bf 92       	push	r11
    2ef6:	cf 92       	push	r12
    2ef8:	df 92       	push	r13
    2efa:	ef 92       	push	r14
    2efc:	ff 92       	push	r15
    2efe:	0f 93       	push	r16
    2f00:	1f 93       	push	r17
    2f02:	cf 93       	push	r28
    2f04:	df 93       	push	r29
    2f06:	cd b7       	in	r28, 0x3d	; 61
    2f08:	de b7       	in	r29, 0x3e	; 62
    2f0a:	ac 97       	sbiw	r28, 0x2c	; 44
    2f0c:	0f b6       	in	r0, 0x3f	; 63
    2f0e:	f8 94       	cli
    2f10:	de bf       	out	0x3e, r29	; 62
    2f12:	0f be       	out	0x3f, r0	; 63
    2f14:	cd bf       	out	0x3d, r28	; 61
    2f16:	1e 8e       	std	Y+30, r1	; 0x1e
    2f18:	1f 8e       	std	Y+31, r1	; 0x1f
    2f1a:	18 a2       	std	Y+32, r1	; 0x20
    2f1c:	19 a2       	std	Y+33, r1	; 0x21
    2f1e:	1a 8e       	std	Y+26, r1	; 0x1a
    2f20:	1b 8e       	std	Y+27, r1	; 0x1b
    2f22:	1c 8e       	std	Y+28, r1	; 0x1c
    2f24:	1d 8e       	std	Y+29, r1	; 0x1d
    2f26:	9c 01       	movw	r18, r24
    2f28:	21 52       	subi	r18, 0x21	; 33
    2f2a:	3f 4f       	sbci	r19, 0xFF	; 255
    2f2c:	3b a7       	std	Y+43, r19	; 0x2b
    2f2e:	2a a7       	std	Y+42, r18	; 0x2a
    2f30:	f9 01       	movw	r30, r18
    2f32:	d0 80       	ld	r13, Z
    2f34:	f7 e0       	ldi	r31, 0x07	; 7
    2f36:	df 16       	cp	r13, r31
    2f38:	09 f4       	brne	.+2      	; 0x2f3c <VL53L0X_get_info_from_device+0x5a>
    2f3a:	c2 c2       	rjmp	.+1412   	; 0x34c0 <VL53L0X_get_info_from_device+0x5de>
    2f3c:	e6 2e       	mov	r14, r22
    2f3e:	8c 01       	movw	r16, r24
    2f40:	41 e0       	ldi	r20, 0x01	; 1
    2f42:	60 e8       	ldi	r22, 0x80	; 128
    2f44:	0e 94 c8 22 	call	0x4590	; 0x4590 <VL53L0X_WrByte>
    2f48:	f8 2e       	mov	r15, r24
    2f4a:	41 e0       	ldi	r20, 0x01	; 1
    2f4c:	6f ef       	ldi	r22, 0xFF	; 255
    2f4e:	c8 01       	movw	r24, r16
    2f50:	0e 94 c8 22 	call	0x4590	; 0x4590 <VL53L0X_WrByte>
    2f54:	f8 2a       	or	r15, r24
    2f56:	40 e0       	ldi	r20, 0x00	; 0
    2f58:	60 e0       	ldi	r22, 0x00	; 0
    2f5a:	c8 01       	movw	r24, r16
    2f5c:	0e 94 c8 22 	call	0x4590	; 0x4590 <VL53L0X_WrByte>
    2f60:	f8 2a       	or	r15, r24
    2f62:	46 e0       	ldi	r20, 0x06	; 6
    2f64:	6f ef       	ldi	r22, 0xFF	; 255
    2f66:	c8 01       	movw	r24, r16
    2f68:	0e 94 c8 22 	call	0x4590	; 0x4590 <VL53L0X_WrByte>
    2f6c:	f8 2a       	or	r15, r24
    2f6e:	ae 01       	movw	r20, r28
    2f70:	48 5d       	subi	r20, 0xD8	; 216
    2f72:	5f 4f       	sbci	r21, 0xFF	; 255
    2f74:	63 e8       	ldi	r22, 0x83	; 131
    2f76:	c8 01       	movw	r24, r16
    2f78:	0e 94 0d 23 	call	0x461a	; 0x461a <VL53L0X_RdByte>
    2f7c:	f8 2a       	or	r15, r24
    2f7e:	48 a5       	ldd	r20, Y+40	; 0x28
    2f80:	44 60       	ori	r20, 0x04	; 4
    2f82:	63 e8       	ldi	r22, 0x83	; 131
    2f84:	c8 01       	movw	r24, r16
    2f86:	0e 94 c8 22 	call	0x4590	; 0x4590 <VL53L0X_WrByte>
    2f8a:	f8 2a       	or	r15, r24
    2f8c:	47 e0       	ldi	r20, 0x07	; 7
    2f8e:	6f ef       	ldi	r22, 0xFF	; 255
    2f90:	c8 01       	movw	r24, r16
    2f92:	0e 94 c8 22 	call	0x4590	; 0x4590 <VL53L0X_WrByte>
    2f96:	f8 2a       	or	r15, r24
    2f98:	41 e0       	ldi	r20, 0x01	; 1
    2f9a:	61 e8       	ldi	r22, 0x81	; 129
    2f9c:	c8 01       	movw	r24, r16
    2f9e:	0e 94 c8 22 	call	0x4590	; 0x4590 <VL53L0X_WrByte>
    2fa2:	f8 2a       	or	r15, r24
    2fa4:	c8 01       	movw	r24, r16
    2fa6:	0e 94 31 23 	call	0x4662	; 0x4662 <VL53L0X_PollingDelay>
    2faa:	f8 2a       	or	r15, r24
    2fac:	41 e0       	ldi	r20, 0x01	; 1
    2fae:	60 e8       	ldi	r22, 0x80	; 128
    2fb0:	c8 01       	movw	r24, r16
    2fb2:	0e 94 c8 22 	call	0x4590	; 0x4590 <VL53L0X_WrByte>
    2fb6:	f8 2a       	or	r15, r24
    2fb8:	2e 2d       	mov	r18, r14
    2fba:	21 70       	andi	r18, 0x01	; 1
    2fbc:	22 2e       	mov	r2, r18
    2fbe:	e0 fe       	sbrs	r14, 0
    2fc0:	57 c0       	rjmp	.+174    	; 0x3070 <VL53L0X_get_info_from_device+0x18e>
    2fc2:	d0 fc       	sbrc	r13, 0
    2fc4:	55 c0       	rjmp	.+170    	; 0x3070 <VL53L0X_get_info_from_device+0x18e>
    2fc6:	4b e6       	ldi	r20, 0x6B	; 107
    2fc8:	64 e9       	ldi	r22, 0x94	; 148
    2fca:	c8 01       	movw	r24, r16
    2fcc:	0e 94 c8 22 	call	0x4590	; 0x4590 <VL53L0X_WrByte>
    2fd0:	c8 2e       	mov	r12, r24
    2fd2:	c8 01       	movw	r24, r16
    2fd4:	0e 94 39 17 	call	0x2e72	; 0x2e72 <_Z26VL53L0X_device_read_strobeP13VL53L0X_Dev_t>
    2fd8:	8c 29       	or	r24, r12
    2fda:	f8 2a       	or	r15, r24
    2fdc:	ae 01       	movw	r20, r28
    2fde:	4e 5d       	subi	r20, 0xDE	; 222
    2fe0:	5f 4f       	sbci	r21, 0xFF	; 255
    2fe2:	60 e9       	ldi	r22, 0x90	; 144
    2fe4:	c8 01       	movw	r24, r16
    2fe6:	0e 94 25 23 	call	0x464a	; 0x464a <VL53L0X_RdDWord>
    2fea:	f8 2a       	or	r15, r24
    2fec:	8a a1       	ldd	r24, Y+34	; 0x22
    2fee:	9b a1       	ldd	r25, Y+35	; 0x23
    2ff0:	ac a1       	ldd	r26, Y+36	; 0x24
    2ff2:	bd a1       	ldd	r27, Y+37	; 0x25
    2ff4:	39 2f       	mov	r19, r25
    2ff6:	3f 77       	andi	r19, 0x7F	; 127
    2ff8:	33 2e       	mov	r3, r19
    2ffa:	4f e0       	ldi	r20, 0x0F	; 15
    2ffc:	b6 95       	lsr	r27
    2ffe:	a7 95       	ror	r26
    3000:	97 95       	ror	r25
    3002:	87 95       	ror	r24
    3004:	4a 95       	dec	r20
    3006:	d1 f7       	brne	.-12     	; 0x2ffc <VL53L0X_get_info_from_device+0x11a>
    3008:	e8 2f       	mov	r30, r24
    300a:	e1 70       	andi	r30, 0x01	; 1
    300c:	ce 2e       	mov	r12, r30
    300e:	44 e2       	ldi	r20, 0x24	; 36
    3010:	64 e9       	ldi	r22, 0x94	; 148
    3012:	c8 01       	movw	r24, r16
    3014:	0e 94 c8 22 	call	0x4590	; 0x4590 <VL53L0X_WrByte>
    3018:	f8 2a       	or	r15, r24
    301a:	c8 01       	movw	r24, r16
    301c:	0e 94 39 17 	call	0x2e72	; 0x2e72 <_Z26VL53L0X_device_read_strobeP13VL53L0X_Dev_t>
    3020:	f8 2a       	or	r15, r24
    3022:	ae 01       	movw	r20, r28
    3024:	4e 5d       	subi	r20, 0xDE	; 222
    3026:	5f 4f       	sbci	r21, 0xFF	; 255
    3028:	60 e9       	ldi	r22, 0x90	; 144
    302a:	c8 01       	movw	r24, r16
    302c:	0e 94 25 23 	call	0x464a	; 0x464a <VL53L0X_RdDWord>
    3030:	f8 2a       	or	r15, r24
    3032:	8a a1       	ldd	r24, Y+34	; 0x22
    3034:	9b a1       	ldd	r25, Y+35	; 0x23
    3036:	2c a1       	ldd	r18, Y+36	; 0x24
    3038:	3d a1       	ldd	r19, Y+37	; 0x25
    303a:	3c 8b       	std	Y+20, r19	; 0x14
    303c:	2d 8b       	std	Y+21, r18	; 0x15
    303e:	9e 8b       	std	Y+22, r25	; 0x16
    3040:	8f 8b       	std	Y+23, r24	; 0x17
    3042:	45 e2       	ldi	r20, 0x25	; 37
    3044:	64 e9       	ldi	r22, 0x94	; 148
    3046:	c8 01       	movw	r24, r16
    3048:	0e 94 c8 22 	call	0x4590	; 0x4590 <VL53L0X_WrByte>
    304c:	f8 2a       	or	r15, r24
    304e:	c8 01       	movw	r24, r16
    3050:	0e 94 39 17 	call	0x2e72	; 0x2e72 <_Z26VL53L0X_device_read_strobeP13VL53L0X_Dev_t>
    3054:	f8 2a       	or	r15, r24
    3056:	ae 01       	movw	r20, r28
    3058:	4e 5d       	subi	r20, 0xDE	; 222
    305a:	5f 4f       	sbci	r21, 0xFF	; 255
    305c:	60 e9       	ldi	r22, 0x90	; 144
    305e:	c8 01       	movw	r24, r16
    3060:	0e 94 25 23 	call	0x464a	; 0x464a <VL53L0X_RdDWord>
    3064:	f8 2a       	or	r15, r24
    3066:	8c a1       	ldd	r24, Y+36	; 0x24
    3068:	9d a1       	ldd	r25, Y+37	; 0x25
    306a:	98 8f       	std	Y+24, r25	; 0x18
    306c:	89 8f       	std	Y+25, r24	; 0x19
    306e:	02 c0       	rjmp	.+4      	; 0x3074 <VL53L0X_get_info_from_device+0x192>
    3070:	c1 2c       	mov	r12, r1
    3072:	31 2c       	mov	r3, r1
    3074:	fe 2d       	mov	r31, r14
    3076:	f2 70       	andi	r31, 0x02	; 2
    3078:	f9 a7       	std	Y+41, r31	; 0x29
    307a:	e1 fe       	sbrs	r14, 1
    307c:	42 c1       	rjmp	.+644    	; 0x3302 <VL53L0X_get_info_from_device+0x420>
    307e:	d1 fc       	sbrc	r13, 1
    3080:	40 c1       	rjmp	.+640    	; 0x3302 <VL53L0X_get_info_from_device+0x420>
    3082:	42 e0       	ldi	r20, 0x02	; 2
    3084:	64 e9       	ldi	r22, 0x94	; 148
    3086:	c8 01       	movw	r24, r16
    3088:	0e 94 c8 22 	call	0x4590	; 0x4590 <VL53L0X_WrByte>
    308c:	b8 2e       	mov	r11, r24
    308e:	c8 01       	movw	r24, r16
    3090:	0e 94 39 17 	call	0x2e72	; 0x2e72 <_Z26VL53L0X_device_read_strobeP13VL53L0X_Dev_t>
    3094:	8b 29       	or	r24, r11
    3096:	f8 2a       	or	r15, r24
    3098:	ae 01       	movw	r20, r28
    309a:	49 5d       	subi	r20, 0xD9	; 217
    309c:	5f 4f       	sbci	r21, 0xFF	; 255
    309e:	60 e9       	ldi	r22, 0x90	; 144
    30a0:	c8 01       	movw	r24, r16
    30a2:	0e 94 0d 23 	call	0x461a	; 0x461a <VL53L0X_RdByte>
    30a6:	f8 2a       	or	r15, r24
    30a8:	4b e7       	ldi	r20, 0x7B	; 123
    30aa:	64 e9       	ldi	r22, 0x94	; 148
    30ac:	c8 01       	movw	r24, r16
    30ae:	0e 94 c8 22 	call	0x4590	; 0x4590 <VL53L0X_WrByte>
    30b2:	f8 2a       	or	r15, r24
    30b4:	c8 01       	movw	r24, r16
    30b6:	0e 94 39 17 	call	0x2e72	; 0x2e72 <_Z26VL53L0X_device_read_strobeP13VL53L0X_Dev_t>
    30ba:	f8 2a       	or	r15, r24
    30bc:	ae 01       	movw	r20, r28
    30be:	4a 5d       	subi	r20, 0xDA	; 218
    30c0:	5f 4f       	sbci	r21, 0xFF	; 255
    30c2:	60 e9       	ldi	r22, 0x90	; 144
    30c4:	c8 01       	movw	r24, r16
    30c6:	0e 94 0d 23 	call	0x461a	; 0x461a <VL53L0X_RdByte>
    30ca:	f8 2a       	or	r15, r24
    30cc:	47 e7       	ldi	r20, 0x77	; 119
    30ce:	64 e9       	ldi	r22, 0x94	; 148
    30d0:	c8 01       	movw	r24, r16
    30d2:	0e 94 c8 22 	call	0x4590	; 0x4590 <VL53L0X_WrByte>
    30d6:	f8 2a       	or	r15, r24
    30d8:	c8 01       	movw	r24, r16
    30da:	0e 94 39 17 	call	0x2e72	; 0x2e72 <_Z26VL53L0X_device_read_strobeP13VL53L0X_Dev_t>
    30de:	f8 2a       	or	r15, r24
    30e0:	ae 01       	movw	r20, r28
    30e2:	4e 5d       	subi	r20, 0xDE	; 222
    30e4:	5f 4f       	sbci	r21, 0xFF	; 255
    30e6:	60 e9       	ldi	r22, 0x90	; 144
    30e8:	c8 01       	movw	r24, r16
    30ea:	0e 94 25 23 	call	0x464a	; 0x464a <VL53L0X_RdDWord>
    30ee:	f8 2a       	or	r15, r24
    30f0:	8a a1       	ldd	r24, Y+34	; 0x22
    30f2:	9b a1       	ldd	r25, Y+35	; 0x23
    30f4:	ac a1       	ldd	r26, Y+36	; 0x24
    30f6:	bd a1       	ldd	r27, Y+37	; 0x25
    30f8:	ac 01       	movw	r20, r24
    30fa:	bd 01       	movw	r22, r26
    30fc:	e9 e1       	ldi	r30, 0x19	; 25
    30fe:	76 95       	lsr	r23
    3100:	67 95       	ror	r22
    3102:	57 95       	ror	r21
    3104:	47 95       	ror	r20
    3106:	ea 95       	dec	r30
    3108:	d1 f7       	brne	.-12     	; 0x30fe <VL53L0X_get_info_from_device+0x21c>
    310a:	49 83       	std	Y+1, r20	; 0x01
    310c:	ac 01       	movw	r20, r24
    310e:	bd 01       	movw	r22, r26
    3110:	f2 e1       	ldi	r31, 0x12	; 18
    3112:	76 95       	lsr	r23
    3114:	67 95       	ror	r22
    3116:	57 95       	ror	r21
    3118:	47 95       	ror	r20
    311a:	fa 95       	dec	r31
    311c:	d1 f7       	brne	.-12     	; 0x3112 <VL53L0X_get_info_from_device+0x230>
    311e:	4f 77       	andi	r20, 0x7F	; 127
    3120:	4a 83       	std	Y+2, r20	; 0x02
    3122:	ac 01       	movw	r20, r24
    3124:	bd 01       	movw	r22, r26
    3126:	2b e0       	ldi	r18, 0x0B	; 11
    3128:	76 95       	lsr	r23
    312a:	67 95       	ror	r22
    312c:	57 95       	ror	r21
    312e:	47 95       	ror	r20
    3130:	2a 95       	dec	r18
    3132:	d1 f7       	brne	.-12     	; 0x3128 <VL53L0X_get_info_from_device+0x246>
    3134:	4f 77       	andi	r20, 0x7F	; 127
    3136:	4b 83       	std	Y+3, r20	; 0x03
    3138:	ac 01       	movw	r20, r24
    313a:	bd 01       	movw	r22, r26
    313c:	34 e0       	ldi	r19, 0x04	; 4
    313e:	76 95       	lsr	r23
    3140:	67 95       	ror	r22
    3142:	57 95       	ror	r21
    3144:	47 95       	ror	r20
    3146:	3a 95       	dec	r19
    3148:	d1 f7       	brne	.-12     	; 0x313e <VL53L0X_get_info_from_device+0x25c>
    314a:	4f 77       	andi	r20, 0x7F	; 127
    314c:	4c 83       	std	Y+4, r20	; 0x04
    314e:	8f 70       	andi	r24, 0x0F	; 15
    3150:	88 0f       	add	r24, r24
    3152:	88 0f       	add	r24, r24
    3154:	88 0f       	add	r24, r24
    3156:	88 a7       	std	Y+40, r24	; 0x28
    3158:	48 e7       	ldi	r20, 0x78	; 120
    315a:	64 e9       	ldi	r22, 0x94	; 148
    315c:	c8 01       	movw	r24, r16
    315e:	0e 94 c8 22 	call	0x4590	; 0x4590 <VL53L0X_WrByte>
    3162:	f8 2a       	or	r15, r24
    3164:	c8 01       	movw	r24, r16
    3166:	0e 94 39 17 	call	0x2e72	; 0x2e72 <_Z26VL53L0X_device_read_strobeP13VL53L0X_Dev_t>
    316a:	f8 2a       	or	r15, r24
    316c:	ae 01       	movw	r20, r28
    316e:	4e 5d       	subi	r20, 0xDE	; 222
    3170:	5f 4f       	sbci	r21, 0xFF	; 255
    3172:	60 e9       	ldi	r22, 0x90	; 144
    3174:	c8 01       	movw	r24, r16
    3176:	0e 94 25 23 	call	0x464a	; 0x464a <VL53L0X_RdDWord>
    317a:	f8 2a       	or	r15, r24
    317c:	8a a1       	ldd	r24, Y+34	; 0x22
    317e:	9b a1       	ldd	r25, Y+35	; 0x23
    3180:	ac a1       	ldd	r26, Y+36	; 0x24
    3182:	bd a1       	ldd	r27, Y+37	; 0x25
    3184:	ac 01       	movw	r20, r24
    3186:	bd 01       	movw	r22, r26
    3188:	ed e1       	ldi	r30, 0x1D	; 29
    318a:	76 95       	lsr	r23
    318c:	67 95       	ror	r22
    318e:	57 95       	ror	r21
    3190:	47 95       	ror	r20
    3192:	ea 95       	dec	r30
    3194:	d1 f7       	brne	.-12     	; 0x318a <VL53L0X_get_info_from_device+0x2a8>
    3196:	28 a5       	ldd	r18, Y+40	; 0x28
    3198:	42 0f       	add	r20, r18
    319a:	4d 83       	std	Y+5, r20	; 0x05
    319c:	ac 01       	movw	r20, r24
    319e:	bd 01       	movw	r22, r26
    31a0:	f6 e1       	ldi	r31, 0x16	; 22
    31a2:	76 95       	lsr	r23
    31a4:	67 95       	ror	r22
    31a6:	57 95       	ror	r21
    31a8:	47 95       	ror	r20
    31aa:	fa 95       	dec	r31
    31ac:	d1 f7       	brne	.-12     	; 0x31a2 <VL53L0X_get_info_from_device+0x2c0>
    31ae:	4f 77       	andi	r20, 0x7F	; 127
    31b0:	4e 83       	std	Y+6, r20	; 0x06
    31b2:	ac 01       	movw	r20, r24
    31b4:	bd 01       	movw	r22, r26
    31b6:	2f e0       	ldi	r18, 0x0F	; 15
    31b8:	76 95       	lsr	r23
    31ba:	67 95       	ror	r22
    31bc:	57 95       	ror	r21
    31be:	47 95       	ror	r20
    31c0:	2a 95       	dec	r18
    31c2:	d1 f7       	brne	.-12     	; 0x31b8 <VL53L0X_get_info_from_device+0x2d6>
    31c4:	4f 77       	andi	r20, 0x7F	; 127
    31c6:	4f 83       	std	Y+7, r20	; 0x07
    31c8:	29 2f       	mov	r18, r25
    31ca:	2f 77       	andi	r18, 0x7F	; 127
    31cc:	28 87       	std	Y+8, r18	; 0x08
    31ce:	ac 01       	movw	r20, r24
    31d0:	bd 01       	movw	r22, r26
    31d2:	76 95       	lsr	r23
    31d4:	67 95       	ror	r22
    31d6:	57 95       	ror	r21
    31d8:	47 95       	ror	r20
    31da:	4f 77       	andi	r20, 0x7F	; 127
    31dc:	49 87       	std	Y+9, r20	; 0x09
    31de:	81 70       	andi	r24, 0x01	; 1
    31e0:	82 95       	swap	r24
    31e2:	88 0f       	add	r24, r24
    31e4:	88 0f       	add	r24, r24
    31e6:	80 7c       	andi	r24, 0xC0	; 192
    31e8:	88 a7       	std	Y+40, r24	; 0x28
    31ea:	49 e7       	ldi	r20, 0x79	; 121
    31ec:	64 e9       	ldi	r22, 0x94	; 148
    31ee:	c8 01       	movw	r24, r16
    31f0:	0e 94 c8 22 	call	0x4590	; 0x4590 <VL53L0X_WrByte>
    31f4:	f8 2a       	or	r15, r24
    31f6:	c8 01       	movw	r24, r16
    31f8:	0e 94 39 17 	call	0x2e72	; 0x2e72 <_Z26VL53L0X_device_read_strobeP13VL53L0X_Dev_t>
    31fc:	f8 2a       	or	r15, r24
    31fe:	ae 01       	movw	r20, r28
    3200:	4e 5d       	subi	r20, 0xDE	; 222
    3202:	5f 4f       	sbci	r21, 0xFF	; 255
    3204:	60 e9       	ldi	r22, 0x90	; 144
    3206:	c8 01       	movw	r24, r16
    3208:	0e 94 25 23 	call	0x464a	; 0x464a <VL53L0X_RdDWord>
    320c:	f8 2a       	or	r15, r24
    320e:	8a a1       	ldd	r24, Y+34	; 0x22
    3210:	9b a1       	ldd	r25, Y+35	; 0x23
    3212:	ac a1       	ldd	r26, Y+36	; 0x24
    3214:	bd a1       	ldd	r27, Y+37	; 0x25
    3216:	ac 01       	movw	r20, r24
    3218:	bd 01       	movw	r22, r26
    321a:	ea e1       	ldi	r30, 0x1A	; 26
    321c:	76 95       	lsr	r23
    321e:	67 95       	ror	r22
    3220:	57 95       	ror	r21
    3222:	47 95       	ror	r20
    3224:	ea 95       	dec	r30
    3226:	d1 f7       	brne	.-12     	; 0x321c <VL53L0X_get_info_from_device+0x33a>
    3228:	28 a5       	ldd	r18, Y+40	; 0x28
    322a:	42 0f       	add	r20, r18
    322c:	4a 87       	std	Y+10, r20	; 0x0a
    322e:	ac 01       	movw	r20, r24
    3230:	bd 01       	movw	r22, r26
    3232:	f3 e1       	ldi	r31, 0x13	; 19
    3234:	76 95       	lsr	r23
    3236:	67 95       	ror	r22
    3238:	57 95       	ror	r21
    323a:	47 95       	ror	r20
    323c:	fa 95       	dec	r31
    323e:	d1 f7       	brne	.-12     	; 0x3234 <VL53L0X_get_info_from_device+0x352>
    3240:	4f 77       	andi	r20, 0x7F	; 127
    3242:	4b 87       	std	Y+11, r20	; 0x0b
    3244:	ac 01       	movw	r20, r24
    3246:	bd 01       	movw	r22, r26
    3248:	2c e0       	ldi	r18, 0x0C	; 12
    324a:	76 95       	lsr	r23
    324c:	67 95       	ror	r22
    324e:	57 95       	ror	r21
    3250:	47 95       	ror	r20
    3252:	2a 95       	dec	r18
    3254:	d1 f7       	brne	.-12     	; 0x324a <VL53L0X_get_info_from_device+0x368>
    3256:	4f 77       	andi	r20, 0x7F	; 127
    3258:	4c 87       	std	Y+12, r20	; 0x0c
    325a:	ac 01       	movw	r20, r24
    325c:	bd 01       	movw	r22, r26
    325e:	35 e0       	ldi	r19, 0x05	; 5
    3260:	76 95       	lsr	r23
    3262:	67 95       	ror	r22
    3264:	57 95       	ror	r21
    3266:	47 95       	ror	r20
    3268:	3a 95       	dec	r19
    326a:	d1 f7       	brne	.-12     	; 0x3260 <VL53L0X_get_info_from_device+0x37e>
    326c:	4f 77       	andi	r20, 0x7F	; 127
    326e:	4d 87       	std	Y+13, r20	; 0x0d
    3270:	8f 71       	andi	r24, 0x1F	; 31
    3272:	88 0f       	add	r24, r24
    3274:	88 0f       	add	r24, r24
    3276:	88 a7       	std	Y+40, r24	; 0x28
    3278:	4a e7       	ldi	r20, 0x7A	; 122
    327a:	64 e9       	ldi	r22, 0x94	; 148
    327c:	c8 01       	movw	r24, r16
    327e:	0e 94 c8 22 	call	0x4590	; 0x4590 <VL53L0X_WrByte>
    3282:	f8 2a       	or	r15, r24
    3284:	c8 01       	movw	r24, r16
    3286:	0e 94 39 17 	call	0x2e72	; 0x2e72 <_Z26VL53L0X_device_read_strobeP13VL53L0X_Dev_t>
    328a:	f8 2a       	or	r15, r24
    328c:	ae 01       	movw	r20, r28
    328e:	4e 5d       	subi	r20, 0xDE	; 222
    3290:	5f 4f       	sbci	r21, 0xFF	; 255
    3292:	60 e9       	ldi	r22, 0x90	; 144
    3294:	c8 01       	movw	r24, r16
    3296:	0e 94 25 23 	call	0x464a	; 0x464a <VL53L0X_RdDWord>
    329a:	f8 2a       	or	r15, r24
    329c:	8a a1       	ldd	r24, Y+34	; 0x22
    329e:	9b a1       	ldd	r25, Y+35	; 0x23
    32a0:	ac a1       	ldd	r26, Y+36	; 0x24
    32a2:	bd a1       	ldd	r27, Y+37	; 0x25
    32a4:	ac 01       	movw	r20, r24
    32a6:	bd 01       	movw	r22, r26
    32a8:	ee e1       	ldi	r30, 0x1E	; 30
    32aa:	76 95       	lsr	r23
    32ac:	67 95       	ror	r22
    32ae:	57 95       	ror	r21
    32b0:	47 95       	ror	r20
    32b2:	ea 95       	dec	r30
    32b4:	d1 f7       	brne	.-12     	; 0x32aa <VL53L0X_get_info_from_device+0x3c8>
    32b6:	28 a5       	ldd	r18, Y+40	; 0x28
    32b8:	42 0f       	add	r20, r18
    32ba:	4e 87       	std	Y+14, r20	; 0x0e
    32bc:	ac 01       	movw	r20, r24
    32be:	bd 01       	movw	r22, r26
    32c0:	f7 e1       	ldi	r31, 0x17	; 23
    32c2:	76 95       	lsr	r23
    32c4:	67 95       	ror	r22
    32c6:	57 95       	ror	r21
    32c8:	47 95       	ror	r20
    32ca:	fa 95       	dec	r31
    32cc:	d1 f7       	brne	.-12     	; 0x32c2 <VL53L0X_get_info_from_device+0x3e0>
    32ce:	4f 77       	andi	r20, 0x7F	; 127
    32d0:	4f 87       	std	Y+15, r20	; 0x0f
    32d2:	2a 2f       	mov	r18, r26
    32d4:	2f 77       	andi	r18, 0x7F	; 127
    32d6:	28 8b       	std	Y+16, r18	; 0x10
    32d8:	ac 01       	movw	r20, r24
    32da:	bd 01       	movw	r22, r26
    32dc:	29 e0       	ldi	r18, 0x09	; 9
    32de:	76 95       	lsr	r23
    32e0:	67 95       	ror	r22
    32e2:	57 95       	ror	r21
    32e4:	47 95       	ror	r20
    32e6:	2a 95       	dec	r18
    32e8:	d1 f7       	brne	.-12     	; 0x32de <VL53L0X_get_info_from_device+0x3fc>
    32ea:	4f 77       	andi	r20, 0x7F	; 127
    32ec:	49 8b       	std	Y+17, r20	; 0x11
    32ee:	32 e0       	ldi	r19, 0x02	; 2
    32f0:	b6 95       	lsr	r27
    32f2:	a7 95       	ror	r26
    32f4:	97 95       	ror	r25
    32f6:	87 95       	ror	r24
    32f8:	3a 95       	dec	r19
    32fa:	d1 f7       	brne	.-12     	; 0x32f0 <VL53L0X_get_info_from_device+0x40e>
    32fc:	8f 77       	andi	r24, 0x7F	; 127
    32fe:	8a 8b       	std	Y+18, r24	; 0x12
    3300:	1b 8a       	std	Y+19, r1	; 0x13
    3302:	2e 2d       	mov	r18, r14
    3304:	24 70       	andi	r18, 0x04	; 4
    3306:	2c a7       	std	Y+44, r18	; 0x2c
    3308:	e2 fe       	sbrs	r14, 2
    330a:	9e c0       	rjmp	.+316    	; 0x3448 <VL53L0X_get_info_from_device+0x566>
    330c:	d2 fc       	sbrc	r13, 2
    330e:	9c c0       	rjmp	.+312    	; 0x3448 <VL53L0X_get_info_from_device+0x566>
    3310:	4b e7       	ldi	r20, 0x7B	; 123
    3312:	64 e9       	ldi	r22, 0x94	; 148
    3314:	c8 01       	movw	r24, r16
    3316:	0e 94 c8 22 	call	0x4590	; 0x4590 <VL53L0X_WrByte>
    331a:	b8 2e       	mov	r11, r24
    331c:	c8 01       	movw	r24, r16
    331e:	0e 94 39 17 	call	0x2e72	; 0x2e72 <_Z26VL53L0X_device_read_strobeP13VL53L0X_Dev_t>
    3322:	8b 29       	or	r24, r11
    3324:	f8 2a       	or	r15, r24
    3326:	ae 01       	movw	r20, r28
    3328:	42 5e       	subi	r20, 0xE2	; 226
    332a:	5f 4f       	sbci	r21, 0xFF	; 255
    332c:	60 e9       	ldi	r22, 0x90	; 144
    332e:	c8 01       	movw	r24, r16
    3330:	0e 94 25 23 	call	0x464a	; 0x464a <VL53L0X_RdDWord>
    3334:	f8 2a       	or	r15, r24
    3336:	4c e7       	ldi	r20, 0x7C	; 124
    3338:	64 e9       	ldi	r22, 0x94	; 148
    333a:	c8 01       	movw	r24, r16
    333c:	0e 94 c8 22 	call	0x4590	; 0x4590 <VL53L0X_WrByte>
    3340:	f8 2a       	or	r15, r24
    3342:	c8 01       	movw	r24, r16
    3344:	0e 94 39 17 	call	0x2e72	; 0x2e72 <_Z26VL53L0X_device_read_strobeP13VL53L0X_Dev_t>
    3348:	f8 2a       	or	r15, r24
    334a:	ae 01       	movw	r20, r28
    334c:	46 5e       	subi	r20, 0xE6	; 230
    334e:	5f 4f       	sbci	r21, 0xFF	; 255
    3350:	60 e9       	ldi	r22, 0x90	; 144
    3352:	c8 01       	movw	r24, r16
    3354:	0e 94 25 23 	call	0x464a	; 0x464a <VL53L0X_RdDWord>
    3358:	f8 2a       	or	r15, r24
    335a:	43 e7       	ldi	r20, 0x73	; 115
    335c:	64 e9       	ldi	r22, 0x94	; 148
    335e:	c8 01       	movw	r24, r16
    3360:	0e 94 c8 22 	call	0x4590	; 0x4590 <VL53L0X_WrByte>
    3364:	f8 2a       	or	r15, r24
    3366:	c8 01       	movw	r24, r16
    3368:	0e 94 39 17 	call	0x2e72	; 0x2e72 <_Z26VL53L0X_device_read_strobeP13VL53L0X_Dev_t>
    336c:	f8 2a       	or	r15, r24
    336e:	ae 01       	movw	r20, r28
    3370:	4e 5d       	subi	r20, 0xDE	; 222
    3372:	5f 4f       	sbci	r21, 0xFF	; 255
    3374:	60 e9       	ldi	r22, 0x90	; 144
    3376:	c8 01       	movw	r24, r16
    3378:	0e 94 25 23 	call	0x464a	; 0x464a <VL53L0X_RdDWord>
    337c:	f8 2a       	or	r15, r24
    337e:	8a a0       	ldd	r8, Y+34	; 0x22
    3380:	9b a0       	ldd	r9, Y+35	; 0x23
    3382:	ac a0       	ldd	r10, Y+36	; 0x24
    3384:	bd a0       	ldd	r11, Y+37	; 0x25
    3386:	ba 2c       	mov	r11, r10
    3388:	a9 2c       	mov	r10, r9
    338a:	98 2c       	mov	r9, r8
    338c:	88 24       	eor	r8, r8
    338e:	24 01       	movw	r4, r8
    3390:	35 01       	movw	r6, r10
    3392:	66 24       	eor	r6, r6
    3394:	77 24       	eor	r7, r7
    3396:	44 e7       	ldi	r20, 0x74	; 116
    3398:	64 e9       	ldi	r22, 0x94	; 148
    339a:	c8 01       	movw	r24, r16
    339c:	0e 94 c8 22 	call	0x4590	; 0x4590 <VL53L0X_WrByte>
    33a0:	f8 2a       	or	r15, r24
    33a2:	c8 01       	movw	r24, r16
    33a4:	0e 94 39 17 	call	0x2e72	; 0x2e72 <_Z26VL53L0X_device_read_strobeP13VL53L0X_Dev_t>
    33a8:	f8 2a       	or	r15, r24
    33aa:	ae 01       	movw	r20, r28
    33ac:	4e 5d       	subi	r20, 0xDE	; 222
    33ae:	5f 4f       	sbci	r21, 0xFF	; 255
    33b0:	60 e9       	ldi	r22, 0x90	; 144
    33b2:	c8 01       	movw	r24, r16
    33b4:	0e 94 25 23 	call	0x464a	; 0x464a <VL53L0X_RdDWord>
    33b8:	f8 2a       	or	r15, r24
    33ba:	8a a0       	ldd	r8, Y+34	; 0x22
    33bc:	9b a0       	ldd	r9, Y+35	; 0x23
    33be:	ac a0       	ldd	r10, Y+36	; 0x24
    33c0:	bd a0       	ldd	r11, Y+37	; 0x25
    33c2:	8b 2c       	mov	r8, r11
    33c4:	99 24       	eor	r9, r9
    33c6:	aa 24       	eor	r10, r10
    33c8:	bb 24       	eor	r11, r11
    33ca:	84 28       	or	r8, r4
    33cc:	95 28       	or	r9, r5
    33ce:	a6 28       	or	r10, r6
    33d0:	b7 28       	or	r11, r7
    33d2:	45 e7       	ldi	r20, 0x75	; 117
    33d4:	64 e9       	ldi	r22, 0x94	; 148
    33d6:	c8 01       	movw	r24, r16
    33d8:	0e 94 c8 22 	call	0x4590	; 0x4590 <VL53L0X_WrByte>
    33dc:	f8 2a       	or	r15, r24
    33de:	c8 01       	movw	r24, r16
    33e0:	0e 94 39 17 	call	0x2e72	; 0x2e72 <_Z26VL53L0X_device_read_strobeP13VL53L0X_Dev_t>
    33e4:	f8 2a       	or	r15, r24
    33e6:	ae 01       	movw	r20, r28
    33e8:	4e 5d       	subi	r20, 0xDE	; 222
    33ea:	5f 4f       	sbci	r21, 0xFF	; 255
    33ec:	60 e9       	ldi	r22, 0x90	; 144
    33ee:	c8 01       	movw	r24, r16
    33f0:	0e 94 25 23 	call	0x464a	; 0x464a <VL53L0X_RdDWord>
    33f4:	f8 2a       	or	r15, r24
    33f6:	4a a0       	ldd	r4, Y+34	; 0x22
    33f8:	5b a0       	ldd	r5, Y+35	; 0x23
    33fa:	6c a0       	ldd	r6, Y+36	; 0x24
    33fc:	7d a0       	ldd	r7, Y+37	; 0x25
    33fe:	76 2c       	mov	r7, r6
    3400:	65 2c       	mov	r6, r5
    3402:	54 2c       	mov	r5, r4
    3404:	44 24       	eor	r4, r4
    3406:	66 24       	eor	r6, r6
    3408:	77 24       	eor	r7, r7
    340a:	46 e7       	ldi	r20, 0x76	; 118
    340c:	64 e9       	ldi	r22, 0x94	; 148
    340e:	c8 01       	movw	r24, r16
    3410:	0e 94 c8 22 	call	0x4590	; 0x4590 <VL53L0X_WrByte>
    3414:	f8 2a       	or	r15, r24
    3416:	c8 01       	movw	r24, r16
    3418:	0e 94 39 17 	call	0x2e72	; 0x2e72 <_Z26VL53L0X_device_read_strobeP13VL53L0X_Dev_t>
    341c:	f8 2a       	or	r15, r24
    341e:	ae 01       	movw	r20, r28
    3420:	4e 5d       	subi	r20, 0xDE	; 222
    3422:	5f 4f       	sbci	r21, 0xFF	; 255
    3424:	60 e9       	ldi	r22, 0x90	; 144
    3426:	c8 01       	movw	r24, r16
    3428:	0e 94 25 23 	call	0x464a	; 0x464a <VL53L0X_RdDWord>
    342c:	f8 2a       	or	r15, r24
    342e:	8a a1       	ldd	r24, Y+34	; 0x22
    3430:	9b a1       	ldd	r25, Y+35	; 0x23
    3432:	ac a1       	ldd	r26, Y+36	; 0x24
    3434:	bd a1       	ldd	r27, Y+37	; 0x25
    3436:	8b 2f       	mov	r24, r27
    3438:	99 27       	eor	r25, r25
    343a:	aa 27       	eor	r26, r26
    343c:	bb 27       	eor	r27, r27
    343e:	48 2a       	or	r4, r24
    3440:	59 2a       	or	r5, r25
    3442:	6a 2a       	or	r6, r26
    3444:	7b 2a       	or	r7, r27
    3446:	06 c0       	rjmp	.+12     	; 0x3454 <VL53L0X_get_info_from_device+0x572>
    3448:	81 2c       	mov	r8, r1
    344a:	91 2c       	mov	r9, r1
    344c:	54 01       	movw	r10, r8
    344e:	41 2c       	mov	r4, r1
    3450:	51 2c       	mov	r5, r1
    3452:	32 01       	movw	r6, r4
    3454:	40 e0       	ldi	r20, 0x00	; 0
    3456:	61 e8       	ldi	r22, 0x81	; 129
    3458:	c8 01       	movw	r24, r16
    345a:	0e 94 c8 22 	call	0x4590	; 0x4590 <VL53L0X_WrByte>
    345e:	f8 2a       	or	r15, r24
    3460:	46 e0       	ldi	r20, 0x06	; 6
    3462:	6f ef       	ldi	r22, 0xFF	; 255
    3464:	c8 01       	movw	r24, r16
    3466:	0e 94 c8 22 	call	0x4590	; 0x4590 <VL53L0X_WrByte>
    346a:	f8 2a       	or	r15, r24
    346c:	ae 01       	movw	r20, r28
    346e:	48 5d       	subi	r20, 0xD8	; 216
    3470:	5f 4f       	sbci	r21, 0xFF	; 255
    3472:	63 e8       	ldi	r22, 0x83	; 131
    3474:	c8 01       	movw	r24, r16
    3476:	0e 94 0d 23 	call	0x461a	; 0x461a <VL53L0X_RdByte>
    347a:	f8 2a       	or	r15, r24
    347c:	48 a5       	ldd	r20, Y+40	; 0x28
    347e:	4b 7f       	andi	r20, 0xFB	; 251
    3480:	63 e8       	ldi	r22, 0x83	; 131
    3482:	c8 01       	movw	r24, r16
    3484:	0e 94 c8 22 	call	0x4590	; 0x4590 <VL53L0X_WrByte>
    3488:	f8 2a       	or	r15, r24
    348a:	41 e0       	ldi	r20, 0x01	; 1
    348c:	6f ef       	ldi	r22, 0xFF	; 255
    348e:	c8 01       	movw	r24, r16
    3490:	0e 94 c8 22 	call	0x4590	; 0x4590 <VL53L0X_WrByte>
    3494:	f8 2a       	or	r15, r24
    3496:	41 e0       	ldi	r20, 0x01	; 1
    3498:	60 e0       	ldi	r22, 0x00	; 0
    349a:	c8 01       	movw	r24, r16
    349c:	0e 94 c8 22 	call	0x4590	; 0x4590 <VL53L0X_WrByte>
    34a0:	f8 2a       	or	r15, r24
    34a2:	40 e0       	ldi	r20, 0x00	; 0
    34a4:	6f ef       	ldi	r22, 0xFF	; 255
    34a6:	c8 01       	movw	r24, r16
    34a8:	0e 94 c8 22 	call	0x4590	; 0x4590 <VL53L0X_WrByte>
    34ac:	f8 2a       	or	r15, r24
    34ae:	40 e0       	ldi	r20, 0x00	; 0
    34b0:	60 e8       	ldi	r22, 0x80	; 128
    34b2:	c8 01       	movw	r24, r16
    34b4:	0e 94 c8 22 	call	0x4590	; 0x4590 <VL53L0X_WrByte>
    34b8:	f8 2a       	or	r15, r24
    34ba:	09 f0       	breq	.+2      	; 0x34be <VL53L0X_get_info_from_device+0x5dc>
    34bc:	7f c0       	rjmp	.+254    	; 0x35bc <VL53L0X_get_info_from_device+0x6da>
    34be:	02 c0       	rjmp	.+4      	; 0x34c4 <VL53L0X_get_info_from_device+0x5e2>
    34c0:	f1 2c       	mov	r15, r1
    34c2:	7c c0       	rjmp	.+248    	; 0x35bc <VL53L0X_get_info_from_device+0x6da>
    34c4:	22 20       	and	r2, r2
    34c6:	11 f0       	breq	.+4      	; 0x34cc <VL53L0X_get_info_from_device+0x5ea>
    34c8:	d0 fe       	sbrs	r13, 0
    34ca:	04 c0       	rjmp	.+8      	; 0x34d4 <VL53L0X_get_info_from_device+0x5f2>
    34cc:	39 a5       	ldd	r19, Y+41	; 0x29
    34ce:	31 11       	cpse	r19, r1
    34d0:	13 c0       	rjmp	.+38     	; 0x34f8 <VL53L0X_get_info_from_device+0x616>
    34d2:	24 c0       	rjmp	.+72     	; 0x351c <VL53L0X_get_info_from_device+0x63a>
    34d4:	f8 01       	movw	r30, r16
    34d6:	ee 5f       	subi	r30, 0xFE	; 254
    34d8:	fe 4f       	sbci	r31, 0xFE	; 254
    34da:	30 82       	st	Z, r3
    34dc:	31 96       	adiw	r30, 0x01	; 1
    34de:	c0 82       	st	Z, r12
    34e0:	de 01       	movw	r26, r28
    34e2:	54 96       	adiw	r26, 0x14	; 20
    34e4:	74 96       	adiw	r30, 0x14	; 20
    34e6:	c8 01       	movw	r24, r16
    34e8:	83 5e       	subi	r24, 0xE3	; 227
    34ea:	9e 4f       	sbci	r25, 0xFE	; 254
    34ec:	2d 91       	ld	r18, X+
    34ee:	21 93       	st	Z+, r18
    34f0:	8e 17       	cp	r24, r30
    34f2:	9f 07       	cpc	r25, r31
    34f4:	d9 f7       	brne	.-10     	; 0x34ec <VL53L0X_get_info_from_device+0x60a>
    34f6:	ea cf       	rjmp	.-44     	; 0x34cc <VL53L0X_get_info_from_device+0x5ea>
    34f8:	d1 fc       	sbrc	r13, 1
    34fa:	10 c0       	rjmp	.+32     	; 0x351c <VL53L0X_get_info_from_device+0x63a>
    34fc:	8f a1       	ldd	r24, Y+39	; 0x27
    34fe:	f8 01       	movw	r30, r16
    3500:	e0 52       	subi	r30, 0x20	; 32
    3502:	ff 4f       	sbci	r31, 0xFF	; 255
    3504:	80 83       	st	Z, r24
    3506:	8e a1       	ldd	r24, Y+38	; 0x26
    3508:	31 96       	adiw	r30, 0x01	; 1
    350a:	80 83       	st	Z, r24
    350c:	be 01       	movw	r22, r28
    350e:	6f 5f       	subi	r22, 0xFF	; 255
    3510:	7f 4f       	sbci	r23, 0xFF	; 255
    3512:	c8 01       	movw	r24, r16
    3514:	8e 51       	subi	r24, 0x1E	; 30
    3516:	9f 4f       	sbci	r25, 0xFF	; 255
    3518:	0e 94 d0 24 	call	0x49a0	; 0x49a0 <strcpy>
    351c:	8c a5       	ldd	r24, Y+44	; 0x2c
    351e:	88 23       	and	r24, r24
    3520:	09 f4       	brne	.+2      	; 0x3524 <VL53L0X_get_info_from_device+0x642>
    3522:	48 c0       	rjmp	.+144    	; 0x35b4 <VL53L0X_get_info_from_device+0x6d2>
    3524:	d2 fc       	sbrc	r13, 2
    3526:	46 c0       	rjmp	.+140    	; 0x35b4 <VL53L0X_get_info_from_device+0x6d2>
    3528:	8e 8d       	ldd	r24, Y+30	; 0x1e
    352a:	9f 8d       	ldd	r25, Y+31	; 0x1f
    352c:	a8 a1       	ldd	r26, Y+32	; 0x20
    352e:	b9 a1       	ldd	r27, Y+33	; 0x21
    3530:	f8 01       	movw	r30, r16
    3532:	eb 5f       	subi	r30, 0xFB	; 251
    3534:	fe 4f       	sbci	r31, 0xFE	; 254
    3536:	80 83       	st	Z, r24
    3538:	91 83       	std	Z+1, r25	; 0x01
    353a:	a2 83       	std	Z+2, r26	; 0x02
    353c:	b3 83       	std	Z+3, r27	; 0x03
    353e:	8a 8d       	ldd	r24, Y+26	; 0x1a
    3540:	9b 8d       	ldd	r25, Y+27	; 0x1b
    3542:	ac 8d       	ldd	r26, Y+28	; 0x1c
    3544:	bd 8d       	ldd	r27, Y+29	; 0x1d
    3546:	34 96       	adiw	r30, 0x04	; 4
    3548:	80 83       	st	Z, r24
    354a:	91 83       	std	Z+1, r25	; 0x01
    354c:	a2 83       	std	Z+2, r26	; 0x02
    354e:	b3 83       	std	Z+3, r27	; 0x03
    3550:	34 96       	adiw	r30, 0x04	; 4
    3552:	39 e0       	ldi	r19, 0x09	; 9
    3554:	88 0c       	add	r8, r8
    3556:	99 1c       	adc	r9, r9
    3558:	aa 1c       	adc	r10, r10
    355a:	bb 1c       	adc	r11, r11
    355c:	3a 95       	dec	r19
    355e:	d1 f7       	brne	.-12     	; 0x3554 <VL53L0X_get_info_from_device+0x672>
    3560:	80 82       	st	Z, r8
    3562:	91 82       	std	Z+1, r9	; 0x01
    3564:	a2 82       	std	Z+2, r10	; 0x02
    3566:	b3 82       	std	Z+3, r11	; 0x03
    3568:	41 14       	cp	r4, r1
    356a:	51 04       	cpc	r5, r1
    356c:	61 04       	cpc	r6, r1
    356e:	71 04       	cpc	r7, r1
    3570:	b1 f0       	breq	.+44     	; 0x359e <VL53L0X_get_info_from_device+0x6bc>
    3572:	a3 01       	movw	r20, r6
    3574:	92 01       	movw	r18, r4
    3576:	39 51       	subi	r19, 0x19	; 25
    3578:	41 09       	sbc	r20, r1
    357a:	51 09       	sbc	r21, r1
    357c:	a8 ee       	ldi	r26, 0xE8	; 232
    357e:	b3 e0       	ldi	r27, 0x03	; 3
    3580:	0e 94 c5 24 	call	0x498a	; 0x498a <__muluhisi3>
    3584:	dc 01       	movw	r26, r24
    3586:	cb 01       	movw	r24, r22
    3588:	24 e0       	ldi	r18, 0x04	; 4
    358a:	b6 95       	lsr	r27
    358c:	a7 95       	ror	r26
    358e:	97 95       	ror	r25
    3590:	87 95       	ror	r24
    3592:	2a 95       	dec	r18
    3594:	d1 f7       	brne	.-12     	; 0x358a <VL53L0X_get_info_from_device+0x6a8>
    3596:	91 95       	neg	r25
    3598:	81 95       	neg	r24
    359a:	91 09       	sbc	r25, r1
    359c:	02 c0       	rjmp	.+4      	; 0x35a2 <VL53L0X_get_info_from_device+0x6c0>
    359e:	80 e0       	ldi	r24, 0x00	; 0
    35a0:	90 e0       	ldi	r25, 0x00	; 0
    35a2:	09 2e       	mov	r0, r25
    35a4:	00 0c       	add	r0, r0
    35a6:	aa 0b       	sbc	r26, r26
    35a8:	bb 0b       	sbc	r27, r27
    35aa:	f8 01       	movw	r30, r16
    35ac:	84 87       	std	Z+12, r24	; 0x0c
    35ae:	95 87       	std	Z+13, r25	; 0x0d
    35b0:	a6 87       	std	Z+14, r26	; 0x0e
    35b2:	b7 87       	std	Z+15, r27	; 0x0f
    35b4:	ed 28       	or	r14, r13
    35b6:	ea a5       	ldd	r30, Y+42	; 0x2a
    35b8:	fb a5       	ldd	r31, Y+43	; 0x2b
    35ba:	e0 82       	st	Z, r14
    35bc:	8f 2d       	mov	r24, r15
    35be:	ac 96       	adiw	r28, 0x2c	; 44
    35c0:	0f b6       	in	r0, 0x3f	; 63
    35c2:	f8 94       	cli
    35c4:	de bf       	out	0x3e, r29	; 62
    35c6:	0f be       	out	0x3f, r0	; 63
    35c8:	cd bf       	out	0x3d, r28	; 61
    35ca:	df 91       	pop	r29
    35cc:	cf 91       	pop	r28
    35ce:	1f 91       	pop	r17
    35d0:	0f 91       	pop	r16
    35d2:	ff 90       	pop	r15
    35d4:	ef 90       	pop	r14
    35d6:	df 90       	pop	r13
    35d8:	cf 90       	pop	r12
    35da:	bf 90       	pop	r11
    35dc:	af 90       	pop	r10
    35de:	9f 90       	pop	r9
    35e0:	8f 90       	pop	r8
    35e2:	7f 90       	pop	r7
    35e4:	6f 90       	pop	r6
    35e6:	5f 90       	pop	r5
    35e8:	4f 90       	pop	r4
    35ea:	3f 90       	pop	r3
    35ec:	2f 90       	pop	r2
    35ee:	08 95       	ret

000035f0 <VL53L0X_encode_timeout>:
    35f0:	cf 92       	push	r12
    35f2:	df 92       	push	r13
    35f4:	ef 92       	push	r14
    35f6:	ff 92       	push	r15
    35f8:	61 15       	cp	r22, r1
    35fa:	71 05       	cpc	r23, r1
    35fc:	81 05       	cpc	r24, r1
    35fe:	91 05       	cpc	r25, r1
    3600:	d1 f0       	breq	.+52     	; 0x3636 <VL53L0X_encode_timeout+0x46>
    3602:	dc 01       	movw	r26, r24
    3604:	cb 01       	movw	r24, r22
    3606:	01 97       	sbiw	r24, 0x01	; 1
    3608:	a1 09       	sbc	r26, r1
    360a:	b1 09       	sbc	r27, r1
    360c:	20 e0       	ldi	r18, 0x00	; 0
    360e:	30 e0       	ldi	r19, 0x00	; 0
    3610:	6c 01       	movw	r12, r24
    3612:	7d 01       	movw	r14, r26
    3614:	cc 24       	eor	r12, r12
    3616:	cd 28       	or	r12, r13
    3618:	ce 28       	or	r12, r14
    361a:	cf 28       	or	r12, r15
    361c:	39 f0       	breq	.+14     	; 0x362c <VL53L0X_encode_timeout+0x3c>
    361e:	b6 95       	lsr	r27
    3620:	a7 95       	ror	r26
    3622:	97 95       	ror	r25
    3624:	87 95       	ror	r24
    3626:	2f 5f       	subi	r18, 0xFF	; 255
    3628:	3f 4f       	sbci	r19, 0xFF	; 255
    362a:	f2 cf       	rjmp	.-28     	; 0x3610 <VL53L0X_encode_timeout+0x20>
    362c:	32 2f       	mov	r19, r18
    362e:	22 27       	eor	r18, r18
    3630:	82 0f       	add	r24, r18
    3632:	93 1f       	adc	r25, r19
    3634:	02 c0       	rjmp	.+4      	; 0x363a <VL53L0X_encode_timeout+0x4a>
    3636:	80 e0       	ldi	r24, 0x00	; 0
    3638:	90 e0       	ldi	r25, 0x00	; 0
    363a:	ff 90       	pop	r15
    363c:	ef 90       	pop	r14
    363e:	df 90       	pop	r13
    3640:	cf 90       	pop	r12
    3642:	08 95       	ret

00003644 <VL53L0X_calc_timeout_mclks>:
    3644:	8f 92       	push	r8
    3646:	9f 92       	push	r9
    3648:	af 92       	push	r10
    364a:	bf 92       	push	r11
    364c:	cf 92       	push	r12
    364e:	df 92       	push	r13
    3650:	ef 92       	push	r14
    3652:	ff 92       	push	r15
    3654:	4a 01       	movw	r8, r20
    3656:	5b 01       	movw	r10, r22
    3658:	a2 2f       	mov	r26, r18
    365a:	b0 e0       	ldi	r27, 0x00	; 0
    365c:	20 e0       	ldi	r18, 0x00	; 0
    365e:	3f e2       	ldi	r19, 0x2F	; 47
    3660:	4a e3       	ldi	r20, 0x3A	; 58
    3662:	50 e0       	ldi	r21, 0x00	; 0
    3664:	0e 94 c5 24 	call	0x498a	; 0x498a <__muluhisi3>
    3668:	6b 01       	movw	r12, r22
    366a:	7c 01       	movw	r14, r24
    366c:	24 ef       	ldi	r18, 0xF4	; 244
    366e:	c2 0e       	add	r12, r18
    3670:	21 e0       	ldi	r18, 0x01	; 1
    3672:	d2 1e       	adc	r13, r18
    3674:	e1 1c       	adc	r14, r1
    3676:	f1 1c       	adc	r15, r1
    3678:	a8 ee       	ldi	r26, 0xE8	; 232
    367a:	b3 e0       	ldi	r27, 0x03	; 3
    367c:	a5 01       	movw	r20, r10
    367e:	94 01       	movw	r18, r8
    3680:	0e 94 c5 24 	call	0x498a	; 0x498a <__muluhisi3>
    3684:	4b 01       	movw	r8, r22
    3686:	5c 01       	movw	r10, r24
    3688:	c7 01       	movw	r24, r14
    368a:	b6 01       	movw	r22, r12
    368c:	20 ed       	ldi	r18, 0xD0	; 208
    368e:	37 e0       	ldi	r19, 0x07	; 7
    3690:	40 e0       	ldi	r20, 0x00	; 0
    3692:	50 e0       	ldi	r21, 0x00	; 0
    3694:	0e 94 6f 24 	call	0x48de	; 0x48de <__udivmodsi4>
    3698:	82 0e       	add	r8, r18
    369a:	93 1e       	adc	r9, r19
    369c:	a4 1e       	adc	r10, r20
    369e:	b5 1e       	adc	r11, r21
    36a0:	c7 01       	movw	r24, r14
    36a2:	b6 01       	movw	r22, r12
    36a4:	28 ee       	ldi	r18, 0xE8	; 232
    36a6:	33 e0       	ldi	r19, 0x03	; 3
    36a8:	40 e0       	ldi	r20, 0x00	; 0
    36aa:	50 e0       	ldi	r21, 0x00	; 0
    36ac:	0e 94 6f 24 	call	0x48de	; 0x48de <__udivmodsi4>
    36b0:	c5 01       	movw	r24, r10
    36b2:	b4 01       	movw	r22, r8
    36b4:	0e 94 6f 24 	call	0x48de	; 0x48de <__udivmodsi4>
    36b8:	ca 01       	movw	r24, r20
    36ba:	b9 01       	movw	r22, r18
    36bc:	ff 90       	pop	r15
    36be:	ef 90       	pop	r14
    36c0:	df 90       	pop	r13
    36c2:	cf 90       	pop	r12
    36c4:	bf 90       	pop	r11
    36c6:	af 90       	pop	r10
    36c8:	9f 90       	pop	r9
    36ca:	8f 90       	pop	r8
    36cc:	08 95       	ret

000036ce <_Z23VL53L0X_calc_timeout_usP13VL53L0X_Dev_tjh>:
    36ce:	4f 92       	push	r4
    36d0:	5f 92       	push	r5
    36d2:	6f 92       	push	r6
    36d4:	7f 92       	push	r7
    36d6:	8f 92       	push	r8
    36d8:	9f 92       	push	r9
    36da:	af 92       	push	r10
    36dc:	bf 92       	push	r11
    36de:	cf 92       	push	r12
    36e0:	df 92       	push	r13
    36e2:	ef 92       	push	r14
    36e4:	ff 92       	push	r15
    36e6:	3b 01       	movw	r6, r22
    36e8:	a4 2f       	mov	r26, r20
    36ea:	b0 e0       	ldi	r27, 0x00	; 0
    36ec:	20 e0       	ldi	r18, 0x00	; 0
    36ee:	3f e2       	ldi	r19, 0x2F	; 47
    36f0:	4a e3       	ldi	r20, 0x3A	; 58
    36f2:	50 e0       	ldi	r21, 0x00	; 0
    36f4:	0e 94 c5 24 	call	0x498a	; 0x498a <__muluhisi3>
    36f8:	6b 01       	movw	r12, r22
    36fa:	7c 01       	movw	r14, r24
    36fc:	24 ef       	ldi	r18, 0xF4	; 244
    36fe:	c2 0e       	add	r12, r18
    3700:	21 e0       	ldi	r18, 0x01	; 1
    3702:	d2 1e       	adc	r13, r18
    3704:	e1 1c       	adc	r14, r1
    3706:	f1 1c       	adc	r15, r1
    3708:	88 ee       	ldi	r24, 0xE8	; 232
    370a:	88 2e       	mov	r8, r24
    370c:	83 e0       	ldi	r24, 0x03	; 3
    370e:	98 2e       	mov	r9, r24
    3710:	a1 2c       	mov	r10, r1
    3712:	b1 2c       	mov	r11, r1
    3714:	c7 01       	movw	r24, r14
    3716:	b6 01       	movw	r22, r12
    3718:	a5 01       	movw	r20, r10
    371a:	94 01       	movw	r18, r8
    371c:	0e 94 6f 24 	call	0x48de	; 0x48de <__udivmodsi4>
    3720:	d3 01       	movw	r26, r6
    3722:	0e 94 c5 24 	call	0x498a	; 0x498a <__muluhisi3>
    3726:	2b 01       	movw	r4, r22
    3728:	3c 01       	movw	r6, r24
    372a:	c7 01       	movw	r24, r14
    372c:	b6 01       	movw	r22, r12
    372e:	20 ed       	ldi	r18, 0xD0	; 208
    3730:	37 e0       	ldi	r19, 0x07	; 7
    3732:	40 e0       	ldi	r20, 0x00	; 0
    3734:	50 e0       	ldi	r21, 0x00	; 0
    3736:	0e 94 6f 24 	call	0x48de	; 0x48de <__udivmodsi4>
    373a:	c3 01       	movw	r24, r6
    373c:	b2 01       	movw	r22, r4
    373e:	62 0f       	add	r22, r18
    3740:	73 1f       	adc	r23, r19
    3742:	84 1f       	adc	r24, r20
    3744:	95 1f       	adc	r25, r21
    3746:	a5 01       	movw	r20, r10
    3748:	94 01       	movw	r18, r8
    374a:	0e 94 6f 24 	call	0x48de	; 0x48de <__udivmodsi4>
    374e:	ca 01       	movw	r24, r20
    3750:	b9 01       	movw	r22, r18
    3752:	ff 90       	pop	r15
    3754:	ef 90       	pop	r14
    3756:	df 90       	pop	r13
    3758:	cf 90       	pop	r12
    375a:	bf 90       	pop	r11
    375c:	af 90       	pop	r10
    375e:	9f 90       	pop	r9
    3760:	8f 90       	pop	r8
    3762:	7f 90       	pop	r7
    3764:	6f 90       	pop	r6
    3766:	5f 90       	pop	r5
    3768:	4f 90       	pop	r4
    376a:	08 95       	ret

0000376c <get_sequence_step_timeout>:
    376c:	af 92       	push	r10
    376e:	bf 92       	push	r11
    3770:	cf 92       	push	r12
    3772:	df 92       	push	r13
    3774:	ef 92       	push	r14
    3776:	ff 92       	push	r15
    3778:	1f 93       	push	r17
    377a:	cf 93       	push	r28
    377c:	df 93       	push	r29
    377e:	cd b7       	in	r28, 0x3d	; 61
    3780:	de b7       	in	r29, 0x3e	; 62
    3782:	2b 97       	sbiw	r28, 0x0b	; 11
    3784:	0f b6       	in	r0, 0x3f	; 63
    3786:	f8 94       	cli
    3788:	de bf       	out	0x3e, r29	; 62
    378a:	0f be       	out	0x3f, r0	; 63
    378c:	cd bf       	out	0x3d, r28	; 61
    378e:	7c 01       	movw	r14, r24
    3790:	5a 01       	movw	r10, r20
    3792:	1a 86       	std	Y+10, r1	; 0x0a
    3794:	19 86       	std	Y+9, r1	; 0x09
    3796:	18 86       	std	Y+8, r1	; 0x08
    3798:	63 30       	cpi	r22, 0x03	; 3
    379a:	b8 f4       	brcc	.+46     	; 0x37ca <get_sequence_step_timeout+0x5e>
    379c:	ae 01       	movw	r20, r28
    379e:	45 5f       	subi	r20, 0xF5	; 245
    37a0:	5f 4f       	sbci	r21, 0xFF	; 255
    37a2:	60 e0       	ldi	r22, 0x00	; 0
    37a4:	0e 94 a6 06 	call	0xd4c	; 0xd4c <VL53L0X_GetVcselPulsePeriod>
    37a8:	18 2f       	mov	r17, r24
    37aa:	81 11       	cpse	r24, r1
    37ac:	08 c0       	rjmp	.+16     	; 0x37be <get_sequence_step_timeout+0x52>
    37ae:	ae 01       	movw	r20, r28
    37b0:	46 5f       	subi	r20, 0xF6	; 246
    37b2:	5f 4f       	sbci	r21, 0xFF	; 255
    37b4:	66 e4       	ldi	r22, 0x46	; 70
    37b6:	c7 01       	movw	r24, r14
    37b8:	0e 94 0d 23 	call	0x461a	; 0x461a <VL53L0X_RdByte>
    37bc:	18 2f       	mov	r17, r24
    37be:	6a 85       	ldd	r22, Y+10	; 0x0a
    37c0:	86 2f       	mov	r24, r22
    37c2:	90 e0       	ldi	r25, 0x00	; 0
    37c4:	a0 e0       	ldi	r26, 0x00	; 0
    37c6:	b0 e0       	ldi	r27, 0x00	; 0
    37c8:	2b c0       	rjmp	.+86     	; 0x3820 <get_sequence_step_timeout+0xb4>
    37ca:	63 30       	cpi	r22, 0x03	; 3
    37cc:	81 f5       	brne	.+96     	; 0x382e <get_sequence_step_timeout+0xc2>
    37ce:	ae 01       	movw	r20, r28
    37d0:	45 5f       	subi	r20, 0xF5	; 245
    37d2:	5f 4f       	sbci	r21, 0xFF	; 255
    37d4:	60 e0       	ldi	r22, 0x00	; 0
    37d6:	0e 94 a6 06 	call	0xd4c	; 0xd4c <VL53L0X_GetVcselPulsePeriod>
    37da:	18 2f       	mov	r17, r24
    37dc:	81 11       	cpse	r24, r1
    37de:	89 c0       	rjmp	.+274    	; 0x38f2 <get_sequence_step_timeout+0x186>
    37e0:	ae 01       	movw	r20, r28
    37e2:	45 5f       	subi	r20, 0xF5	; 245
    37e4:	5f 4f       	sbci	r21, 0xFF	; 255
    37e6:	60 e0       	ldi	r22, 0x00	; 0
    37e8:	c7 01       	movw	r24, r14
    37ea:	0e 94 a6 06 	call	0xd4c	; 0xd4c <VL53L0X_GetVcselPulsePeriod>
    37ee:	18 2f       	mov	r17, r24
    37f0:	81 11       	cpse	r24, r1
    37f2:	08 c0       	rjmp	.+16     	; 0x3804 <get_sequence_step_timeout+0x98>
    37f4:	ae 01       	movw	r20, r28
    37f6:	48 5f       	subi	r20, 0xF8	; 248
    37f8:	5f 4f       	sbci	r21, 0xFF	; 255
    37fa:	61 e5       	ldi	r22, 0x51	; 81
    37fc:	c7 01       	movw	r24, r14
    37fe:	0e 94 19 23 	call	0x4632	; 0x4632 <VL53L0X_RdWord>
    3802:	18 2f       	mov	r17, r24
    3804:	28 85       	ldd	r18, Y+8	; 0x08
    3806:	39 85       	ldd	r19, Y+9	; 0x09
    3808:	b9 01       	movw	r22, r18
    380a:	77 27       	eor	r23, r23
    380c:	cb 01       	movw	r24, r22
    380e:	a0 e0       	ldi	r26, 0x00	; 0
    3810:	b0 e0       	ldi	r27, 0x00	; 0
    3812:	04 c0       	rjmp	.+8      	; 0x381c <get_sequence_step_timeout+0xb0>
    3814:	88 0f       	add	r24, r24
    3816:	99 1f       	adc	r25, r25
    3818:	aa 1f       	adc	r26, r26
    381a:	bb 1f       	adc	r27, r27
    381c:	3a 95       	dec	r19
    381e:	d2 f7       	brpl	.-12     	; 0x3814 <get_sequence_step_timeout+0xa8>
    3820:	bc 01       	movw	r22, r24
    3822:	cd 01       	movw	r24, r26
    3824:	6f 5f       	subi	r22, 0xFF	; 255
    3826:	7f 4f       	sbci	r23, 0xFF	; 255
    3828:	8f 4f       	sbci	r24, 0xFF	; 255
    382a:	9f 4f       	sbci	r25, 0xFF	; 255
    382c:	5d c0       	rjmp	.+186    	; 0x38e8 <get_sequence_step_timeout+0x17c>
    382e:	64 30       	cpi	r22, 0x04	; 4
    3830:	09 f0       	breq	.+2      	; 0x3834 <get_sequence_step_timeout+0xc8>
    3832:	63 c0       	rjmp	.+198    	; 0x38fa <get_sequence_step_timeout+0x18e>
    3834:	be 01       	movw	r22, r28
    3836:	6f 5f       	subi	r22, 0xFF	; 255
    3838:	7f 4f       	sbci	r23, 0xFF	; 255
    383a:	0e 94 19 07 	call	0xe32	; 0xe32 <VL53L0X_GetSequenceStepEnables>
    383e:	8c 81       	ldd	r24, Y+4	; 0x04
    3840:	88 23       	and	r24, r24
    3842:	31 f1       	breq	.+76     	; 0x3890 <get_sequence_step_timeout+0x124>
    3844:	ae 01       	movw	r20, r28
    3846:	45 5f       	subi	r20, 0xF5	; 245
    3848:	5f 4f       	sbci	r21, 0xFF	; 255
    384a:	60 e0       	ldi	r22, 0x00	; 0
    384c:	c7 01       	movw	r24, r14
    384e:	0e 94 a6 06 	call	0xd4c	; 0xd4c <VL53L0X_GetVcselPulsePeriod>
    3852:	18 2f       	mov	r17, r24
    3854:	81 11       	cpse	r24, r1
    3856:	41 c0       	rjmp	.+130    	; 0x38da <get_sequence_step_timeout+0x16e>
    3858:	ae 01       	movw	r20, r28
    385a:	48 5f       	subi	r20, 0xF8	; 248
    385c:	5f 4f       	sbci	r21, 0xFF	; 255
    385e:	61 e5       	ldi	r22, 0x51	; 81
    3860:	c7 01       	movw	r24, r14
    3862:	0e 94 19 23 	call	0x4632	; 0x4632 <VL53L0X_RdWord>
    3866:	18 2f       	mov	r17, r24
    3868:	28 85       	ldd	r18, Y+8	; 0x08
    386a:	39 85       	ldd	r19, Y+9	; 0x09
    386c:	c9 01       	movw	r24, r18
    386e:	99 27       	eor	r25, r25
    3870:	a0 e0       	ldi	r26, 0x00	; 0
    3872:	b0 e0       	ldi	r27, 0x00	; 0
    3874:	04 c0       	rjmp	.+8      	; 0x387e <get_sequence_step_timeout+0x112>
    3876:	88 0f       	add	r24, r24
    3878:	99 1f       	adc	r25, r25
    387a:	aa 1f       	adc	r26, r26
    387c:	bb 1f       	adc	r27, r27
    387e:	3a 95       	dec	r19
    3880:	d2 f7       	brpl	.-12     	; 0x3876 <get_sequence_step_timeout+0x10a>
    3882:	01 96       	adiw	r24, 0x01	; 1
    3884:	a1 1d       	adc	r26, r1
    3886:	b1 1d       	adc	r27, r1
    3888:	6c 01       	movw	r12, r24
    388a:	11 11       	cpse	r17, r1
    388c:	28 c0       	rjmp	.+80     	; 0x38de <get_sequence_step_timeout+0x172>
    388e:	02 c0       	rjmp	.+4      	; 0x3894 <get_sequence_step_timeout+0x128>
    3890:	c1 2c       	mov	r12, r1
    3892:	d1 2c       	mov	r13, r1
    3894:	ae 01       	movw	r20, r28
    3896:	45 5f       	subi	r20, 0xF5	; 245
    3898:	5f 4f       	sbci	r21, 0xFF	; 255
    389a:	61 e0       	ldi	r22, 0x01	; 1
    389c:	c7 01       	movw	r24, r14
    389e:	0e 94 a6 06 	call	0xd4c	; 0xd4c <VL53L0X_GetVcselPulsePeriod>
    38a2:	18 2f       	mov	r17, r24
    38a4:	81 11       	cpse	r24, r1
    38a6:	1b c0       	rjmp	.+54     	; 0x38de <get_sequence_step_timeout+0x172>
    38a8:	ae 01       	movw	r20, r28
    38aa:	4a 5f       	subi	r20, 0xFA	; 250
    38ac:	5f 4f       	sbci	r21, 0xFF	; 255
    38ae:	61 e7       	ldi	r22, 0x71	; 113
    38b0:	c7 01       	movw	r24, r14
    38b2:	0e 94 19 23 	call	0x4632	; 0x4632 <VL53L0X_RdWord>
    38b6:	18 2f       	mov	r17, r24
    38b8:	2e 81       	ldd	r18, Y+6	; 0x06
    38ba:	3f 81       	ldd	r19, Y+7	; 0x07
    38bc:	c9 01       	movw	r24, r18
    38be:	99 27       	eor	r25, r25
    38c0:	a0 e0       	ldi	r26, 0x00	; 0
    38c2:	b0 e0       	ldi	r27, 0x00	; 0
    38c4:	04 c0       	rjmp	.+8      	; 0x38ce <get_sequence_step_timeout+0x162>
    38c6:	88 0f       	add	r24, r24
    38c8:	99 1f       	adc	r25, r25
    38ca:	aa 1f       	adc	r26, r26
    38cc:	bb 1f       	adc	r27, r27
    38ce:	3a 95       	dec	r19
    38d0:	d2 f7       	brpl	.-12     	; 0x38c6 <get_sequence_step_timeout+0x15a>
    38d2:	01 96       	adiw	r24, 0x01	; 1
    38d4:	a1 1d       	adc	r26, r1
    38d6:	b1 1d       	adc	r27, r1
    38d8:	04 c0       	rjmp	.+8      	; 0x38e2 <get_sequence_step_timeout+0x176>
    38da:	c1 2c       	mov	r12, r1
    38dc:	d1 2c       	mov	r13, r1
    38de:	80 e0       	ldi	r24, 0x00	; 0
    38e0:	90 e0       	ldi	r25, 0x00	; 0
    38e2:	bc 01       	movw	r22, r24
    38e4:	6c 19       	sub	r22, r12
    38e6:	7d 09       	sbc	r23, r13
    38e8:	4b 85       	ldd	r20, Y+11	; 0x0b
    38ea:	c7 01       	movw	r24, r14
    38ec:	0e 94 67 1b 	call	0x36ce	; 0x36ce <_Z23VL53L0X_calc_timeout_usP13VL53L0X_Dev_tjh>
    38f0:	08 c0       	rjmp	.+16     	; 0x3902 <get_sequence_step_timeout+0x196>
    38f2:	60 e0       	ldi	r22, 0x00	; 0
    38f4:	70 e0       	ldi	r23, 0x00	; 0
    38f6:	cb 01       	movw	r24, r22
    38f8:	04 c0       	rjmp	.+8      	; 0x3902 <get_sequence_step_timeout+0x196>
    38fa:	60 e0       	ldi	r22, 0x00	; 0
    38fc:	70 e0       	ldi	r23, 0x00	; 0
    38fe:	cb 01       	movw	r24, r22
    3900:	10 e0       	ldi	r17, 0x00	; 0
    3902:	f5 01       	movw	r30, r10
    3904:	60 83       	st	Z, r22
    3906:	71 83       	std	Z+1, r23	; 0x01
    3908:	82 83       	std	Z+2, r24	; 0x02
    390a:	93 83       	std	Z+3, r25	; 0x03
    390c:	81 2f       	mov	r24, r17
    390e:	2b 96       	adiw	r28, 0x0b	; 11
    3910:	0f b6       	in	r0, 0x3f	; 63
    3912:	f8 94       	cli
    3914:	de bf       	out	0x3e, r29	; 62
    3916:	0f be       	out	0x3f, r0	; 63
    3918:	cd bf       	out	0x3d, r28	; 61
    391a:	df 91       	pop	r29
    391c:	cf 91       	pop	r28
    391e:	1f 91       	pop	r17
    3920:	ff 90       	pop	r15
    3922:	ef 90       	pop	r14
    3924:	df 90       	pop	r13
    3926:	cf 90       	pop	r12
    3928:	bf 90       	pop	r11
    392a:	af 90       	pop	r10
    392c:	08 95       	ret

0000392e <set_sequence_step_timeout>:
    392e:	8f 92       	push	r8
    3930:	9f 92       	push	r9
    3932:	af 92       	push	r10
    3934:	bf 92       	push	r11
    3936:	cf 92       	push	r12
    3938:	df 92       	push	r13
    393a:	ff 92       	push	r15
    393c:	0f 93       	push	r16
    393e:	1f 93       	push	r17
    3940:	cf 93       	push	r28
    3942:	df 93       	push	r29
    3944:	cd b7       	in	r28, 0x3d	; 61
    3946:	de b7       	in	r29, 0x3e	; 62
    3948:	28 97       	sbiw	r28, 0x08	; 8
    394a:	0f b6       	in	r0, 0x3f	; 63
    394c:	f8 94       	cli
    394e:	de bf       	out	0x3e, r29	; 62
    3950:	0f be       	out	0x3f, r0	; 63
    3952:	cd bf       	out	0x3d, r28	; 61
    3954:	8c 01       	movw	r16, r24
    3956:	49 01       	movw	r8, r18
    3958:	5a 01       	movw	r10, r20
    395a:	63 30       	cpi	r22, 0x03	; 3
    395c:	10 f5       	brcc	.+68     	; 0x39a2 <set_sequence_step_timeout+0x74>
    395e:	ae 01       	movw	r20, r28
    3960:	48 5f       	subi	r20, 0xF8	; 248
    3962:	5f 4f       	sbci	r21, 0xFF	; 255
    3964:	60 e0       	ldi	r22, 0x00	; 0
    3966:	0e 94 a6 06 	call	0xd4c	; 0xd4c <VL53L0X_GetVcselPulsePeriod>
    396a:	f8 2e       	mov	r15, r24
    396c:	81 11       	cpse	r24, r1
    396e:	9c c0       	rjmp	.+312    	; 0x3aa8 <set_sequence_step_timeout+0x17a>
    3970:	28 85       	ldd	r18, Y+8	; 0x08
    3972:	b5 01       	movw	r22, r10
    3974:	a4 01       	movw	r20, r8
    3976:	c8 01       	movw	r24, r16
    3978:	0e 94 22 1b 	call	0x3644	; 0x3644 <VL53L0X_calc_timeout_mclks>
    397c:	4f ef       	ldi	r20, 0xFF	; 255
    397e:	61 30       	cpi	r22, 0x01	; 1
    3980:	21 e0       	ldi	r18, 0x01	; 1
    3982:	72 07       	cpc	r23, r18
    3984:	08 f4       	brcc	.+2      	; 0x3988 <set_sequence_step_timeout+0x5a>
    3986:	46 0f       	add	r20, r22
    3988:	f8 01       	movw	r30, r16
    398a:	e4 53       	subi	r30, 0x34	; 52
    398c:	ff 4f       	sbci	r31, 0xFF	; 255
    398e:	84 2f       	mov	r24, r20
    3990:	90 e0       	ldi	r25, 0x00	; 0
    3992:	91 83       	std	Z+1, r25	; 0x01
    3994:	80 83       	st	Z, r24
    3996:	66 e4       	ldi	r22, 0x46	; 70
    3998:	c8 01       	movw	r24, r16
    399a:	0e 94 c8 22 	call	0x4590	; 0x4590 <VL53L0X_WrByte>
    399e:	f8 2e       	mov	r15, r24
    39a0:	83 c0       	rjmp	.+262    	; 0x3aa8 <set_sequence_step_timeout+0x17a>
    39a2:	63 30       	cpi	r22, 0x03	; 3
    39a4:	31 f5       	brne	.+76     	; 0x39f2 <set_sequence_step_timeout+0xc4>
    39a6:	ae 01       	movw	r20, r28
    39a8:	48 5f       	subi	r20, 0xF8	; 248
    39aa:	5f 4f       	sbci	r21, 0xFF	; 255
    39ac:	60 e0       	ldi	r22, 0x00	; 0
    39ae:	0e 94 a6 06 	call	0xd4c	; 0xd4c <VL53L0X_GetVcselPulsePeriod>
    39b2:	f8 2e       	mov	r15, r24
    39b4:	28 85       	ldd	r18, Y+8	; 0x08
    39b6:	b5 01       	movw	r22, r10
    39b8:	a4 01       	movw	r20, r8
    39ba:	c8 01       	movw	r24, r16
    39bc:	0e 94 22 1b 	call	0x3644	; 0x3644 <VL53L0X_calc_timeout_mclks>
    39c0:	88 27       	eor	r24, r24
    39c2:	99 27       	eor	r25, r25
    39c4:	0e 94 f8 1a 	call	0x35f0	; 0x35f0 <VL53L0X_encode_timeout>
    39c8:	9f 83       	std	Y+7, r25	; 0x07
    39ca:	8e 83       	std	Y+6, r24	; 0x06
    39cc:	f8 01       	movw	r30, r16
    39ce:	e4 53       	subi	r30, 0x34	; 52
    39d0:	ff 4f       	sbci	r31, 0xFF	; 255
    39d2:	91 83       	std	Z+1, r25	; 0x01
    39d4:	80 83       	st	Z, r24
    39d6:	f1 10       	cpse	r15, r1
    39d8:	67 c0       	rjmp	.+206    	; 0x3aa8 <set_sequence_step_timeout+0x17a>
    39da:	ac 01       	movw	r20, r24
    39dc:	61 e5       	ldi	r22, 0x51	; 81
    39de:	c8 01       	movw	r24, r16
    39e0:	0e 94 d4 22 	call	0x45a8	; 0x45a8 <VL53L0X_WrWord>
    39e4:	f8 2e       	mov	r15, r24
    39e6:	81 11       	cpse	r24, r1
    39e8:	5f c0       	rjmp	.+190    	; 0x3aa8 <set_sequence_step_timeout+0x17a>
    39ea:	f8 01       	movw	r30, r16
    39ec:	ec 52       	subi	r30, 0x2C	; 44
    39ee:	ff 4f       	sbci	r31, 0xFF	; 255
    39f0:	54 c0       	rjmp	.+168    	; 0x3a9a <set_sequence_step_timeout+0x16c>
    39f2:	64 30       	cpi	r22, 0x04	; 4
    39f4:	09 f0       	breq	.+2      	; 0x39f8 <set_sequence_step_timeout+0xca>
    39f6:	56 c0       	rjmp	.+172    	; 0x3aa4 <set_sequence_step_timeout+0x176>
    39f8:	be 01       	movw	r22, r28
    39fa:	6f 5f       	subi	r22, 0xFF	; 255
    39fc:	7f 4f       	sbci	r23, 0xFF	; 255
    39fe:	0e 94 19 07 	call	0xe32	; 0xe32 <VL53L0X_GetSequenceStepEnables>
    3a02:	8c 81       	ldd	r24, Y+4	; 0x04
    3a04:	88 23       	and	r24, r24
    3a06:	31 f1       	breq	.+76     	; 0x3a54 <set_sequence_step_timeout+0x126>
    3a08:	ae 01       	movw	r20, r28
    3a0a:	48 5f       	subi	r20, 0xF8	; 248
    3a0c:	5f 4f       	sbci	r21, 0xFF	; 255
    3a0e:	60 e0       	ldi	r22, 0x00	; 0
    3a10:	c8 01       	movw	r24, r16
    3a12:	0e 94 a6 06 	call	0xd4c	; 0xd4c <VL53L0X_GetVcselPulsePeriod>
    3a16:	f8 2e       	mov	r15, r24
    3a18:	81 11       	cpse	r24, r1
    3a1a:	46 c0       	rjmp	.+140    	; 0x3aa8 <set_sequence_step_timeout+0x17a>
    3a1c:	ae 01       	movw	r20, r28
    3a1e:	4a 5f       	subi	r20, 0xFA	; 250
    3a20:	5f 4f       	sbci	r21, 0xFF	; 255
    3a22:	61 e5       	ldi	r22, 0x51	; 81
    3a24:	c8 01       	movw	r24, r16
    3a26:	0e 94 19 23 	call	0x4632	; 0x4632 <VL53L0X_RdWord>
    3a2a:	f8 2e       	mov	r15, r24
    3a2c:	81 11       	cpse	r24, r1
    3a2e:	3c c0       	rjmp	.+120    	; 0x3aa8 <set_sequence_step_timeout+0x17a>
    3a30:	2e 81       	ldd	r18, Y+6	; 0x06
    3a32:	3f 81       	ldd	r19, Y+7	; 0x07
    3a34:	c9 01       	movw	r24, r18
    3a36:	99 27       	eor	r25, r25
    3a38:	a0 e0       	ldi	r26, 0x00	; 0
    3a3a:	b0 e0       	ldi	r27, 0x00	; 0
    3a3c:	04 c0       	rjmp	.+8      	; 0x3a46 <set_sequence_step_timeout+0x118>
    3a3e:	88 0f       	add	r24, r24
    3a40:	99 1f       	adc	r25, r25
    3a42:	aa 1f       	adc	r26, r26
    3a44:	bb 1f       	adc	r27, r27
    3a46:	3a 95       	dec	r19
    3a48:	d2 f7       	brpl	.-12     	; 0x3a3e <set_sequence_step_timeout+0x110>
    3a4a:	01 96       	adiw	r24, 0x01	; 1
    3a4c:	a1 1d       	adc	r26, r1
    3a4e:	b1 1d       	adc	r27, r1
    3a50:	6c 01       	movw	r12, r24
    3a52:	02 c0       	rjmp	.+4      	; 0x3a58 <set_sequence_step_timeout+0x12a>
    3a54:	c1 2c       	mov	r12, r1
    3a56:	d1 2c       	mov	r13, r1
    3a58:	ae 01       	movw	r20, r28
    3a5a:	48 5f       	subi	r20, 0xF8	; 248
    3a5c:	5f 4f       	sbci	r21, 0xFF	; 255
    3a5e:	61 e0       	ldi	r22, 0x01	; 1
    3a60:	c8 01       	movw	r24, r16
    3a62:	0e 94 a6 06 	call	0xd4c	; 0xd4c <VL53L0X_GetVcselPulsePeriod>
    3a66:	f8 2e       	mov	r15, r24
    3a68:	81 11       	cpse	r24, r1
    3a6a:	1e c0       	rjmp	.+60     	; 0x3aa8 <set_sequence_step_timeout+0x17a>
    3a6c:	28 85       	ldd	r18, Y+8	; 0x08
    3a6e:	b5 01       	movw	r22, r10
    3a70:	a4 01       	movw	r20, r8
    3a72:	c8 01       	movw	r24, r16
    3a74:	0e 94 22 1b 	call	0x3644	; 0x3644 <VL53L0X_calc_timeout_mclks>
    3a78:	6c 0d       	add	r22, r12
    3a7a:	7d 1d       	adc	r23, r13
    3a7c:	80 e0       	ldi	r24, 0x00	; 0
    3a7e:	90 e0       	ldi	r25, 0x00	; 0
    3a80:	0e 94 f8 1a 	call	0x35f0	; 0x35f0 <VL53L0X_encode_timeout>
    3a84:	ac 01       	movw	r20, r24
    3a86:	61 e7       	ldi	r22, 0x71	; 113
    3a88:	c8 01       	movw	r24, r16
    3a8a:	0e 94 d4 22 	call	0x45a8	; 0x45a8 <VL53L0X_WrWord>
    3a8e:	f8 2e       	mov	r15, r24
    3a90:	81 11       	cpse	r24, r1
    3a92:	0a c0       	rjmp	.+20     	; 0x3aa8 <set_sequence_step_timeout+0x17a>
    3a94:	f8 01       	movw	r30, r16
    3a96:	e1 53       	subi	r30, 0x31	; 49
    3a98:	ff 4f       	sbci	r31, 0xFF	; 255
    3a9a:	80 82       	st	Z, r8
    3a9c:	91 82       	std	Z+1, r9	; 0x01
    3a9e:	a2 82       	std	Z+2, r10	; 0x02
    3aa0:	b3 82       	std	Z+3, r11	; 0x03
    3aa2:	02 c0       	rjmp	.+4      	; 0x3aa8 <set_sequence_step_timeout+0x17a>
    3aa4:	8c ef       	ldi	r24, 0xFC	; 252
    3aa6:	f8 2e       	mov	r15, r24
    3aa8:	8f 2d       	mov	r24, r15
    3aaa:	28 96       	adiw	r28, 0x08	; 8
    3aac:	0f b6       	in	r0, 0x3f	; 63
    3aae:	f8 94       	cli
    3ab0:	de bf       	out	0x3e, r29	; 62
    3ab2:	0f be       	out	0x3f, r0	; 63
    3ab4:	cd bf       	out	0x3d, r28	; 61
    3ab6:	df 91       	pop	r29
    3ab8:	cf 91       	pop	r28
    3aba:	1f 91       	pop	r17
    3abc:	0f 91       	pop	r16
    3abe:	ff 90       	pop	r15
    3ac0:	df 90       	pop	r13
    3ac2:	cf 90       	pop	r12
    3ac4:	bf 90       	pop	r11
    3ac6:	af 90       	pop	r10
    3ac8:	9f 90       	pop	r9
    3aca:	8f 90       	pop	r8
    3acc:	08 95       	ret

00003ace <VL53L0X_get_vcsel_pulse_period>:
    3ace:	0f 93       	push	r16
    3ad0:	1f 93       	push	r17
    3ad2:	cf 93       	push	r28
    3ad4:	df 93       	push	r29
    3ad6:	1f 92       	push	r1
    3ad8:	cd b7       	in	r28, 0x3d	; 61
    3ada:	de b7       	in	r29, 0x3e	; 62
    3adc:	8a 01       	movw	r16, r20
    3ade:	66 23       	and	r22, r22
    3ae0:	39 f0       	breq	.+14     	; 0x3af0 <VL53L0X_get_vcsel_pulse_period+0x22>
    3ae2:	61 30       	cpi	r22, 0x01	; 1
    3ae4:	99 f4       	brne	.+38     	; 0x3b0c <VL53L0X_get_vcsel_pulse_period+0x3e>
    3ae6:	ae 01       	movw	r20, r28
    3ae8:	4f 5f       	subi	r20, 0xFF	; 255
    3aea:	5f 4f       	sbci	r21, 0xFF	; 255
    3aec:	60 e7       	ldi	r22, 0x70	; 112
    3aee:	04 c0       	rjmp	.+8      	; 0x3af8 <VL53L0X_get_vcsel_pulse_period+0x2a>
    3af0:	ae 01       	movw	r20, r28
    3af2:	4f 5f       	subi	r20, 0xFF	; 255
    3af4:	5f 4f       	sbci	r21, 0xFF	; 255
    3af6:	60 e5       	ldi	r22, 0x50	; 80
    3af8:	0e 94 0d 23 	call	0x461a	; 0x461a <VL53L0X_RdByte>
    3afc:	81 11       	cpse	r24, r1
    3afe:	07 c0       	rjmp	.+14     	; 0x3b0e <VL53L0X_get_vcsel_pulse_period+0x40>
    3b00:	99 81       	ldd	r25, Y+1	; 0x01
    3b02:	9f 5f       	subi	r25, 0xFF	; 255
    3b04:	99 0f       	add	r25, r25
    3b06:	f8 01       	movw	r30, r16
    3b08:	90 83       	st	Z, r25
    3b0a:	01 c0       	rjmp	.+2      	; 0x3b0e <VL53L0X_get_vcsel_pulse_period+0x40>
    3b0c:	8c ef       	ldi	r24, 0xFC	; 252
    3b0e:	0f 90       	pop	r0
    3b10:	df 91       	pop	r29
    3b12:	cf 91       	pop	r28
    3b14:	1f 91       	pop	r17
    3b16:	0f 91       	pop	r16
    3b18:	08 95       	ret

00003b1a <VL53L0X_set_measurement_timing_budget_micro_seconds>:
    3b1a:	8f 92       	push	r8
    3b1c:	9f 92       	push	r9
    3b1e:	af 92       	push	r10
    3b20:	bf 92       	push	r11
    3b22:	cf 92       	push	r12
    3b24:	df 92       	push	r13
    3b26:	ef 92       	push	r14
    3b28:	ff 92       	push	r15
    3b2a:	0f 93       	push	r16
    3b2c:	1f 93       	push	r17
    3b2e:	cf 93       	push	r28
    3b30:	df 93       	push	r29
    3b32:	cd b7       	in	r28, 0x3d	; 61
    3b34:	de b7       	in	r29, 0x3e	; 62
    3b36:	2d 97       	sbiw	r28, 0x0d	; 13
    3b38:	0f b6       	in	r0, 0x3f	; 63
    3b3a:	f8 94       	cli
    3b3c:	de bf       	out	0x3e, r29	; 62
    3b3e:	0f be       	out	0x3f, r0	; 63
    3b40:	cd bf       	out	0x3d, r28	; 61
    3b42:	00 ed       	ldi	r16, 0xD0	; 208
    3b44:	17 e0       	ldi	r17, 0x07	; 7
    3b46:	20 e0       	ldi	r18, 0x00	; 0
    3b48:	30 e0       	ldi	r19, 0x00	; 0
    3b4a:	0a 87       	std	Y+10, r16	; 0x0a
    3b4c:	1b 87       	std	Y+11, r17	; 0x0b
    3b4e:	2c 87       	std	Y+12, r18	; 0x0c
    3b50:	3d 87       	std	Y+13, r19	; 0x0d
    3b52:	1e 82       	std	Y+6, r1	; 0x06
    3b54:	1f 82       	std	Y+7, r1	; 0x07
    3b56:	18 86       	std	Y+8, r1	; 0x08
    3b58:	19 86       	std	Y+9, r1	; 0x09
    3b5a:	40 32       	cpi	r20, 0x20	; 32
    3b5c:	2e e4       	ldi	r18, 0x4E	; 78
    3b5e:	52 07       	cpc	r21, r18
    3b60:	61 05       	cpc	r22, r1
    3b62:	71 05       	cpc	r23, r1
    3b64:	08 f4       	brcc	.+2      	; 0x3b68 <VL53L0X_set_measurement_timing_budget_micro_seconds+0x4e>
    3b66:	90 c0       	rjmp	.+288    	; 0x3c88 <VL53L0X_set_measurement_timing_budget_micro_seconds+0x16e>
    3b68:	4a 01       	movw	r8, r20
    3b6a:	5b 01       	movw	r10, r22
    3b6c:	8c 01       	movw	r16, r24
    3b6e:	be 01       	movw	r22, r28
    3b70:	6f 5f       	subi	r22, 0xFF	; 255
    3b72:	7f 4f       	sbci	r23, 0xFF	; 255
    3b74:	0e 94 19 07 	call	0xe32	; 0xe32 <VL53L0X_GetSequenceStepEnables>
    3b78:	81 11       	cpse	r24, r1
    3b7a:	87 c0       	rjmp	.+270    	; 0x3c8a <VL53L0X_set_measurement_timing_budget_micro_seconds+0x170>
    3b7c:	75 01       	movw	r14, r10
    3b7e:	64 01       	movw	r12, r8
    3b80:	88 ee       	ldi	r24, 0xE8	; 232
    3b82:	c8 1a       	sub	r12, r24
    3b84:	88 e0       	ldi	r24, 0x08	; 8
    3b86:	d8 0a       	sbc	r13, r24
    3b88:	e1 08       	sbc	r14, r1
    3b8a:	f1 08       	sbc	r15, r1
    3b8c:	89 81       	ldd	r24, Y+1	; 0x01
    3b8e:	81 11       	cpse	r24, r1
    3b90:	07 c0       	rjmp	.+14     	; 0x3ba0 <VL53L0X_set_measurement_timing_budget_micro_seconds+0x86>
    3b92:	8a 81       	ldd	r24, Y+2	; 0x02
    3b94:	81 11       	cpse	r24, r1
    3b96:	04 c0       	rjmp	.+8      	; 0x3ba0 <VL53L0X_set_measurement_timing_budget_micro_seconds+0x86>
    3b98:	8b 81       	ldd	r24, Y+3	; 0x03
    3b9a:	88 23       	and	r24, r24
    3b9c:	09 f4       	brne	.+2      	; 0x3ba0 <VL53L0X_set_measurement_timing_budget_micro_seconds+0x86>
    3b9e:	42 c0       	rjmp	.+132    	; 0x3c24 <VL53L0X_set_measurement_timing_budget_micro_seconds+0x10a>
    3ba0:	ae 01       	movw	r20, r28
    3ba2:	46 5f       	subi	r20, 0xF6	; 246
    3ba4:	5f 4f       	sbci	r21, 0xFF	; 255
    3ba6:	62 e0       	ldi	r22, 0x02	; 2
    3ba8:	c8 01       	movw	r24, r16
    3baa:	0e 94 b6 1b 	call	0x376c	; 0x376c <get_sequence_step_timeout>
    3bae:	81 11       	cpse	r24, r1
    3bb0:	6c c0       	rjmp	.+216    	; 0x3c8a <VL53L0X_set_measurement_timing_budget_micro_seconds+0x170>
    3bb2:	89 81       	ldd	r24, Y+1	; 0x01
    3bb4:	88 23       	and	r24, r24
    3bb6:	91 f0       	breq	.+36     	; 0x3bdc <VL53L0X_set_measurement_timing_budget_micro_seconds+0xc2>
    3bb8:	8a 85       	ldd	r24, Y+10	; 0x0a
    3bba:	9b 85       	ldd	r25, Y+11	; 0x0b
    3bbc:	ac 85       	ldd	r26, Y+12	; 0x0c
    3bbe:	bd 85       	ldd	r27, Y+13	; 0x0d
    3bc0:	82 5b       	subi	r24, 0xB2	; 178
    3bc2:	9d 4f       	sbci	r25, 0xFD	; 253
    3bc4:	af 4f       	sbci	r26, 0xFF	; 255
    3bc6:	bf 4f       	sbci	r27, 0xFF	; 255
    3bc8:	8c 15       	cp	r24, r12
    3bca:	9d 05       	cpc	r25, r13
    3bcc:	ae 05       	cpc	r26, r14
    3bce:	bf 05       	cpc	r27, r15
    3bd0:	08 f0       	brcs	.+2      	; 0x3bd4 <VL53L0X_set_measurement_timing_budget_micro_seconds+0xba>
    3bd2:	5a c0       	rjmp	.+180    	; 0x3c88 <VL53L0X_set_measurement_timing_budget_micro_seconds+0x16e>
    3bd4:	c8 1a       	sub	r12, r24
    3bd6:	d9 0a       	sbc	r13, r25
    3bd8:	ea 0a       	sbc	r14, r26
    3bda:	fb 0a       	sbc	r15, r27
    3bdc:	8b 81       	ldd	r24, Y+3	; 0x03
    3bde:	88 23       	and	r24, r24
    3be0:	69 f0       	breq	.+26     	; 0x3bfc <VL53L0X_set_measurement_timing_budget_micro_seconds+0xe2>
    3be2:	8a 85       	ldd	r24, Y+10	; 0x0a
    3be4:	9b 85       	ldd	r25, Y+11	; 0x0b
    3be6:	ac 85       	ldd	r26, Y+12	; 0x0c
    3be8:	bd 85       	ldd	r27, Y+13	; 0x0d
    3bea:	8e 54       	subi	r24, 0x4E	; 78
    3bec:	9d 4f       	sbci	r25, 0xFD	; 253
    3bee:	af 4f       	sbci	r26, 0xFF	; 255
    3bf0:	bf 4f       	sbci	r27, 0xFF	; 255
    3bf2:	88 0f       	add	r24, r24
    3bf4:	99 1f       	adc	r25, r25
    3bf6:	aa 1f       	adc	r26, r26
    3bf8:	bb 1f       	adc	r27, r27
    3bfa:	0b c0       	rjmp	.+22     	; 0x3c12 <VL53L0X_set_measurement_timing_budget_micro_seconds+0xf8>
    3bfc:	8a 81       	ldd	r24, Y+2	; 0x02
    3bfe:	88 23       	and	r24, r24
    3c00:	89 f0       	breq	.+34     	; 0x3c24 <VL53L0X_set_measurement_timing_budget_micro_seconds+0x10a>
    3c02:	8a 85       	ldd	r24, Y+10	; 0x0a
    3c04:	9b 85       	ldd	r25, Y+11	; 0x0b
    3c06:	ac 85       	ldd	r26, Y+12	; 0x0c
    3c08:	bd 85       	ldd	r27, Y+13	; 0x0d
    3c0a:	8c 56       	subi	r24, 0x6C	; 108
    3c0c:	9d 4f       	sbci	r25, 0xFD	; 253
    3c0e:	af 4f       	sbci	r26, 0xFF	; 255
    3c10:	bf 4f       	sbci	r27, 0xFF	; 255
    3c12:	8c 15       	cp	r24, r12
    3c14:	9d 05       	cpc	r25, r13
    3c16:	ae 05       	cpc	r26, r14
    3c18:	bf 05       	cpc	r27, r15
    3c1a:	b0 f5       	brcc	.+108    	; 0x3c88 <VL53L0X_set_measurement_timing_budget_micro_seconds+0x16e>
    3c1c:	c8 1a       	sub	r12, r24
    3c1e:	d9 0a       	sbc	r13, r25
    3c20:	ea 0a       	sbc	r14, r26
    3c22:	fb 0a       	sbc	r15, r27
    3c24:	8c 81       	ldd	r24, Y+4	; 0x04
    3c26:	88 23       	and	r24, r24
    3c28:	d1 f0       	breq	.+52     	; 0x3c5e <VL53L0X_set_measurement_timing_budget_micro_seconds+0x144>
    3c2a:	ae 01       	movw	r20, r28
    3c2c:	4a 5f       	subi	r20, 0xFA	; 250
    3c2e:	5f 4f       	sbci	r21, 0xFF	; 255
    3c30:	63 e0       	ldi	r22, 0x03	; 3
    3c32:	c8 01       	movw	r24, r16
    3c34:	0e 94 b6 1b 	call	0x376c	; 0x376c <get_sequence_step_timeout>
    3c38:	4e 81       	ldd	r20, Y+6	; 0x06
    3c3a:	5f 81       	ldd	r21, Y+7	; 0x07
    3c3c:	68 85       	ldd	r22, Y+8	; 0x08
    3c3e:	79 85       	ldd	r23, Y+9	; 0x09
    3c40:	4c 56       	subi	r20, 0x6C	; 108
    3c42:	5d 4f       	sbci	r21, 0xFD	; 253
    3c44:	6f 4f       	sbci	r22, 0xFF	; 255
    3c46:	7f 4f       	sbci	r23, 0xFF	; 255
    3c48:	4c 15       	cp	r20, r12
    3c4a:	5d 05       	cpc	r21, r13
    3c4c:	6e 05       	cpc	r22, r14
    3c4e:	7f 05       	cpc	r23, r15
    3c50:	d8 f4       	brcc	.+54     	; 0x3c88 <VL53L0X_set_measurement_timing_budget_micro_seconds+0x16e>
    3c52:	81 11       	cpse	r24, r1
    3c54:	1a c0       	rjmp	.+52     	; 0x3c8a <VL53L0X_set_measurement_timing_budget_micro_seconds+0x170>
    3c56:	c4 1a       	sub	r12, r20
    3c58:	d5 0a       	sbc	r13, r21
    3c5a:	e6 0a       	sbc	r14, r22
    3c5c:	f7 0a       	sbc	r15, r23
    3c5e:	8d 81       	ldd	r24, Y+5	; 0x05
    3c60:	88 23       	and	r24, r24
    3c62:	81 f0       	breq	.+32     	; 0x3c84 <VL53L0X_set_measurement_timing_budget_micro_seconds+0x16a>
    3c64:	a7 01       	movw	r20, r14
    3c66:	96 01       	movw	r18, r12
    3c68:	26 52       	subi	r18, 0x26	; 38
    3c6a:	32 40       	sbci	r19, 0x02	; 2
    3c6c:	41 09       	sbc	r20, r1
    3c6e:	51 09       	sbc	r21, r1
    3c70:	64 e0       	ldi	r22, 0x04	; 4
    3c72:	c8 01       	movw	r24, r16
    3c74:	0e 94 97 1c 	call	0x392e	; 0x392e <set_sequence_step_timeout>
    3c78:	f8 01       	movw	r30, r16
    3c7a:	82 8a       	std	Z+18, r8	; 0x12
    3c7c:	93 8a       	std	Z+19, r9	; 0x13
    3c7e:	a4 8a       	std	Z+20, r10	; 0x14
    3c80:	b5 8a       	std	Z+21, r11	; 0x15
    3c82:	03 c0       	rjmp	.+6      	; 0x3c8a <VL53L0X_set_measurement_timing_budget_micro_seconds+0x170>
    3c84:	80 e0       	ldi	r24, 0x00	; 0
    3c86:	01 c0       	rjmp	.+2      	; 0x3c8a <VL53L0X_set_measurement_timing_budget_micro_seconds+0x170>
    3c88:	8c ef       	ldi	r24, 0xFC	; 252
    3c8a:	2d 96       	adiw	r28, 0x0d	; 13
    3c8c:	0f b6       	in	r0, 0x3f	; 63
    3c8e:	f8 94       	cli
    3c90:	de bf       	out	0x3e, r29	; 62
    3c92:	0f be       	out	0x3f, r0	; 63
    3c94:	cd bf       	out	0x3d, r28	; 61
    3c96:	df 91       	pop	r29
    3c98:	cf 91       	pop	r28
    3c9a:	1f 91       	pop	r17
    3c9c:	0f 91       	pop	r16
    3c9e:	ff 90       	pop	r15
    3ca0:	ef 90       	pop	r14
    3ca2:	df 90       	pop	r13
    3ca4:	cf 90       	pop	r12
    3ca6:	bf 90       	pop	r11
    3ca8:	af 90       	pop	r10
    3caa:	9f 90       	pop	r9
    3cac:	8f 90       	pop	r8
    3cae:	08 95       	ret

00003cb0 <VL53L0X_get_measurement_timing_budget_micro_seconds>:
    3cb0:	8f 92       	push	r8
    3cb2:	9f 92       	push	r9
    3cb4:	af 92       	push	r10
    3cb6:	bf 92       	push	r11
    3cb8:	df 92       	push	r13
    3cba:	ef 92       	push	r14
    3cbc:	ff 92       	push	r15
    3cbe:	0f 93       	push	r16
    3cc0:	1f 93       	push	r17
    3cc2:	cf 93       	push	r28
    3cc4:	df 93       	push	r29
    3cc6:	cd b7       	in	r28, 0x3d	; 61
    3cc8:	de b7       	in	r29, 0x3e	; 62
    3cca:	61 97       	sbiw	r28, 0x11	; 17
    3ccc:	0f b6       	in	r0, 0x3f	; 63
    3cce:	f8 94       	cli
    3cd0:	de bf       	out	0x3e, r29	; 62
    3cd2:	0f be       	out	0x3f, r0	; 63
    3cd4:	cd bf       	out	0x3d, r28	; 61
    3cd6:	7c 01       	movw	r14, r24
    3cd8:	8b 01       	movw	r16, r22
    3cda:	80 ed       	ldi	r24, 0xD0	; 208
    3cdc:	97 e0       	ldi	r25, 0x07	; 7
    3cde:	a0 e0       	ldi	r26, 0x00	; 0
    3ce0:	b0 e0       	ldi	r27, 0x00	; 0
    3ce2:	8a 87       	std	Y+10, r24	; 0x0a
    3ce4:	9b 87       	std	Y+11, r25	; 0x0b
    3ce6:	ac 87       	std	Y+12, r26	; 0x0c
    3ce8:	bd 87       	std	Y+13, r27	; 0x0d
    3cea:	1e 82       	std	Y+6, r1	; 0x06
    3cec:	1f 82       	std	Y+7, r1	; 0x07
    3cee:	18 86       	std	Y+8, r1	; 0x08
    3cf0:	19 86       	std	Y+9, r1	; 0x09
    3cf2:	86 e3       	ldi	r24, 0x36	; 54
    3cf4:	9b e0       	ldi	r25, 0x0B	; 11
    3cf6:	a0 e0       	ldi	r26, 0x00	; 0
    3cf8:	b0 e0       	ldi	r27, 0x00	; 0
    3cfa:	fb 01       	movw	r30, r22
    3cfc:	80 83       	st	Z, r24
    3cfe:	91 83       	std	Z+1, r25	; 0x01
    3d00:	a2 83       	std	Z+2, r26	; 0x02
    3d02:	b3 83       	std	Z+3, r27	; 0x03
    3d04:	be 01       	movw	r22, r28
    3d06:	6f 5f       	subi	r22, 0xFF	; 255
    3d08:	7f 4f       	sbci	r23, 0xFF	; 255
    3d0a:	c7 01       	movw	r24, r14
    3d0c:	0e 94 19 07 	call	0xe32	; 0xe32 <VL53L0X_GetSequenceStepEnables>
    3d10:	d8 2e       	mov	r13, r24
    3d12:	81 11       	cpse	r24, r1
    3d14:	a1 c0       	rjmp	.+322    	; 0x3e58 <VL53L0X_get_measurement_timing_budget_micro_seconds+0x1a8>
    3d16:	89 81       	ldd	r24, Y+1	; 0x01
    3d18:	81 11       	cpse	r24, r1
    3d1a:	07 c0       	rjmp	.+14     	; 0x3d2a <VL53L0X_get_measurement_timing_budget_micro_seconds+0x7a>
    3d1c:	8a 81       	ldd	r24, Y+2	; 0x02
    3d1e:	81 11       	cpse	r24, r1
    3d20:	04 c0       	rjmp	.+8      	; 0x3d2a <VL53L0X_get_measurement_timing_budget_micro_seconds+0x7a>
    3d22:	8b 81       	ldd	r24, Y+3	; 0x03
    3d24:	88 23       	and	r24, r24
    3d26:	09 f4       	brne	.+2      	; 0x3d2a <VL53L0X_get_measurement_timing_budget_micro_seconds+0x7a>
    3d28:	49 c0       	rjmp	.+146    	; 0x3dbc <VL53L0X_get_measurement_timing_budget_micro_seconds+0x10c>
    3d2a:	ae 01       	movw	r20, r28
    3d2c:	46 5f       	subi	r20, 0xF6	; 246
    3d2e:	5f 4f       	sbci	r21, 0xFF	; 255
    3d30:	62 e0       	ldi	r22, 0x02	; 2
    3d32:	c7 01       	movw	r24, r14
    3d34:	0e 94 b6 1b 	call	0x376c	; 0x376c <get_sequence_step_timeout>
    3d38:	81 11       	cpse	r24, r1
    3d3a:	8d c0       	rjmp	.+282    	; 0x3e56 <VL53L0X_get_measurement_timing_budget_micro_seconds+0x1a6>
    3d3c:	89 81       	ldd	r24, Y+1	; 0x01
    3d3e:	88 23       	and	r24, r24
    3d40:	a9 f0       	breq	.+42     	; 0x3d6c <VL53L0X_get_measurement_timing_budget_micro_seconds+0xbc>
    3d42:	8a 85       	ldd	r24, Y+10	; 0x0a
    3d44:	9b 85       	ldd	r25, Y+11	; 0x0b
    3d46:	ac 85       	ldd	r26, Y+12	; 0x0c
    3d48:	bd 85       	ldd	r27, Y+13	; 0x0d
    3d4a:	82 5b       	subi	r24, 0xB2	; 178
    3d4c:	9d 4f       	sbci	r25, 0xFD	; 253
    3d4e:	af 4f       	sbci	r26, 0xFF	; 255
    3d50:	bf 4f       	sbci	r27, 0xFF	; 255
    3d52:	f8 01       	movw	r30, r16
    3d54:	40 81       	ld	r20, Z
    3d56:	51 81       	ldd	r21, Z+1	; 0x01
    3d58:	62 81       	ldd	r22, Z+2	; 0x02
    3d5a:	73 81       	ldd	r23, Z+3	; 0x03
    3d5c:	84 0f       	add	r24, r20
    3d5e:	95 1f       	adc	r25, r21
    3d60:	a6 1f       	adc	r26, r22
    3d62:	b7 1f       	adc	r27, r23
    3d64:	80 83       	st	Z, r24
    3d66:	91 83       	std	Z+1, r25	; 0x01
    3d68:	a2 83       	std	Z+2, r26	; 0x02
    3d6a:	b3 83       	std	Z+3, r27	; 0x03
    3d6c:	8b 81       	ldd	r24, Y+3	; 0x03
    3d6e:	88 23       	and	r24, r24
    3d70:	69 f0       	breq	.+26     	; 0x3d8c <VL53L0X_get_measurement_timing_budget_micro_seconds+0xdc>
    3d72:	8a 85       	ldd	r24, Y+10	; 0x0a
    3d74:	9b 85       	ldd	r25, Y+11	; 0x0b
    3d76:	ac 85       	ldd	r26, Y+12	; 0x0c
    3d78:	bd 85       	ldd	r27, Y+13	; 0x0d
    3d7a:	8e 54       	subi	r24, 0x4E	; 78
    3d7c:	9d 4f       	sbci	r25, 0xFD	; 253
    3d7e:	af 4f       	sbci	r26, 0xFF	; 255
    3d80:	bf 4f       	sbci	r27, 0xFF	; 255
    3d82:	88 0f       	add	r24, r24
    3d84:	99 1f       	adc	r25, r25
    3d86:	aa 1f       	adc	r26, r26
    3d88:	bb 1f       	adc	r27, r27
    3d8a:	0b c0       	rjmp	.+22     	; 0x3da2 <VL53L0X_get_measurement_timing_budget_micro_seconds+0xf2>
    3d8c:	8a 81       	ldd	r24, Y+2	; 0x02
    3d8e:	88 23       	and	r24, r24
    3d90:	a9 f0       	breq	.+42     	; 0x3dbc <VL53L0X_get_measurement_timing_budget_micro_seconds+0x10c>
    3d92:	8a 85       	ldd	r24, Y+10	; 0x0a
    3d94:	9b 85       	ldd	r25, Y+11	; 0x0b
    3d96:	ac 85       	ldd	r26, Y+12	; 0x0c
    3d98:	bd 85       	ldd	r27, Y+13	; 0x0d
    3d9a:	8c 56       	subi	r24, 0x6C	; 108
    3d9c:	9d 4f       	sbci	r25, 0xFD	; 253
    3d9e:	af 4f       	sbci	r26, 0xFF	; 255
    3da0:	bf 4f       	sbci	r27, 0xFF	; 255
    3da2:	f8 01       	movw	r30, r16
    3da4:	40 81       	ld	r20, Z
    3da6:	51 81       	ldd	r21, Z+1	; 0x01
    3da8:	62 81       	ldd	r22, Z+2	; 0x02
    3daa:	73 81       	ldd	r23, Z+3	; 0x03
    3dac:	84 0f       	add	r24, r20
    3dae:	95 1f       	adc	r25, r21
    3db0:	a6 1f       	adc	r26, r22
    3db2:	b7 1f       	adc	r27, r23
    3db4:	80 83       	st	Z, r24
    3db6:	91 83       	std	Z+1, r25	; 0x01
    3db8:	a2 83       	std	Z+2, r26	; 0x02
    3dba:	b3 83       	std	Z+3, r27	; 0x03
    3dbc:	8c 81       	ldd	r24, Y+4	; 0x04
    3dbe:	88 23       	and	r24, r24
    3dc0:	f1 f0       	breq	.+60     	; 0x3dfe <VL53L0X_get_measurement_timing_budget_micro_seconds+0x14e>
    3dc2:	ae 01       	movw	r20, r28
    3dc4:	4a 5f       	subi	r20, 0xFA	; 250
    3dc6:	5f 4f       	sbci	r21, 0xFF	; 255
    3dc8:	63 e0       	ldi	r22, 0x03	; 3
    3dca:	c7 01       	movw	r24, r14
    3dcc:	0e 94 b6 1b 	call	0x376c	; 0x376c <get_sequence_step_timeout>
    3dd0:	4e 81       	ldd	r20, Y+6	; 0x06
    3dd2:	5f 81       	ldd	r21, Y+7	; 0x07
    3dd4:	68 85       	ldd	r22, Y+8	; 0x08
    3dd6:	79 85       	ldd	r23, Y+9	; 0x09
    3dd8:	4c 56       	subi	r20, 0x6C	; 108
    3dda:	5d 4f       	sbci	r21, 0xFD	; 253
    3ddc:	6f 4f       	sbci	r22, 0xFF	; 255
    3dde:	7f 4f       	sbci	r23, 0xFF	; 255
    3de0:	f8 01       	movw	r30, r16
    3de2:	80 80       	ld	r8, Z
    3de4:	91 80       	ldd	r9, Z+1	; 0x01
    3de6:	a2 80       	ldd	r10, Z+2	; 0x02
    3de8:	b3 80       	ldd	r11, Z+3	; 0x03
    3dea:	48 0d       	add	r20, r8
    3dec:	59 1d       	adc	r21, r9
    3dee:	6a 1d       	adc	r22, r10
    3df0:	7b 1d       	adc	r23, r11
    3df2:	40 83       	st	Z, r20
    3df4:	51 83       	std	Z+1, r21	; 0x01
    3df6:	62 83       	std	Z+2, r22	; 0x02
    3df8:	73 83       	std	Z+3, r23	; 0x03
    3dfa:	81 11       	cpse	r24, r1
    3dfc:	2c c0       	rjmp	.+88     	; 0x3e56 <VL53L0X_get_measurement_timing_budget_micro_seconds+0x1a6>
    3dfe:	8d 81       	ldd	r24, Y+5	; 0x05
    3e00:	81 11       	cpse	r24, r1
    3e02:	0b c0       	rjmp	.+22     	; 0x3e1a <VL53L0X_get_measurement_timing_budget_micro_seconds+0x16a>
    3e04:	f8 01       	movw	r30, r16
    3e06:	80 81       	ld	r24, Z
    3e08:	91 81       	ldd	r25, Z+1	; 0x01
    3e0a:	a2 81       	ldd	r26, Z+2	; 0x02
    3e0c:	b3 81       	ldd	r27, Z+3	; 0x03
    3e0e:	f7 01       	movw	r30, r14
    3e10:	82 8b       	std	Z+18, r24	; 0x12
    3e12:	93 8b       	std	Z+19, r25	; 0x13
    3e14:	a4 8b       	std	Z+20, r26	; 0x14
    3e16:	b5 8b       	std	Z+21, r27	; 0x15
    3e18:	1f c0       	rjmp	.+62     	; 0x3e58 <VL53L0X_get_measurement_timing_budget_micro_seconds+0x1a8>
    3e1a:	ae 01       	movw	r20, r28
    3e1c:	42 5f       	subi	r20, 0xF2	; 242
    3e1e:	5f 4f       	sbci	r21, 0xFF	; 255
    3e20:	64 e0       	ldi	r22, 0x04	; 4
    3e22:	c7 01       	movw	r24, r14
    3e24:	0e 94 b6 1b 	call	0x376c	; 0x376c <get_sequence_step_timeout>
    3e28:	4e 85       	ldd	r20, Y+14	; 0x0e
    3e2a:	5f 85       	ldd	r21, Y+15	; 0x0f
    3e2c:	68 89       	ldd	r22, Y+16	; 0x10
    3e2e:	79 89       	ldd	r23, Y+17	; 0x11
    3e30:	4a 5d       	subi	r20, 0xDA	; 218
    3e32:	5d 4f       	sbci	r21, 0xFD	; 253
    3e34:	6f 4f       	sbci	r22, 0xFF	; 255
    3e36:	7f 4f       	sbci	r23, 0xFF	; 255
    3e38:	f8 01       	movw	r30, r16
    3e3a:	80 80       	ld	r8, Z
    3e3c:	91 80       	ldd	r9, Z+1	; 0x01
    3e3e:	a2 80       	ldd	r10, Z+2	; 0x02
    3e40:	b3 80       	ldd	r11, Z+3	; 0x03
    3e42:	48 0d       	add	r20, r8
    3e44:	59 1d       	adc	r21, r9
    3e46:	6a 1d       	adc	r22, r10
    3e48:	7b 1d       	adc	r23, r11
    3e4a:	40 83       	st	Z, r20
    3e4c:	51 83       	std	Z+1, r21	; 0x01
    3e4e:	62 83       	std	Z+2, r22	; 0x02
    3e50:	73 83       	std	Z+3, r23	; 0x03
    3e52:	88 23       	and	r24, r24
    3e54:	b9 f2       	breq	.-82     	; 0x3e04 <VL53L0X_get_measurement_timing_budget_micro_seconds+0x154>
    3e56:	d8 2e       	mov	r13, r24
    3e58:	8d 2d       	mov	r24, r13
    3e5a:	61 96       	adiw	r28, 0x11	; 17
    3e5c:	0f b6       	in	r0, 0x3f	; 63
    3e5e:	f8 94       	cli
    3e60:	de bf       	out	0x3e, r29	; 62
    3e62:	0f be       	out	0x3f, r0	; 63
    3e64:	cd bf       	out	0x3d, r28	; 61
    3e66:	df 91       	pop	r29
    3e68:	cf 91       	pop	r28
    3e6a:	1f 91       	pop	r17
    3e6c:	0f 91       	pop	r16
    3e6e:	ff 90       	pop	r15
    3e70:	ef 90       	pop	r14
    3e72:	df 90       	pop	r13
    3e74:	bf 90       	pop	r11
    3e76:	af 90       	pop	r10
    3e78:	9f 90       	pop	r9
    3e7a:	8f 90       	pop	r8
    3e7c:	08 95       	ret

00003e7e <VL53L0X_load_tuning_settings>:
    3e7e:	2f 92       	push	r2
    3e80:	3f 92       	push	r3
    3e82:	4f 92       	push	r4
    3e84:	5f 92       	push	r5
    3e86:	6f 92       	push	r6
    3e88:	7f 92       	push	r7
    3e8a:	8f 92       	push	r8
    3e8c:	9f 92       	push	r9
    3e8e:	af 92       	push	r10
    3e90:	bf 92       	push	r11
    3e92:	cf 92       	push	r12
    3e94:	df 92       	push	r13
    3e96:	ef 92       	push	r14
    3e98:	ff 92       	push	r15
    3e9a:	0f 93       	push	r16
    3e9c:	1f 93       	push	r17
    3e9e:	cf 93       	push	r28
    3ea0:	df 93       	push	r29
    3ea2:	00 d0       	rcall	.+0      	; 0x3ea4 <VL53L0X_load_tuning_settings+0x26>
    3ea4:	00 d0       	rcall	.+0      	; 0x3ea6 <VL53L0X_load_tuning_settings+0x28>
    3ea6:	00 d0       	rcall	.+0      	; 0x3ea8 <VL53L0X_load_tuning_settings+0x2a>
    3ea8:	cd b7       	in	r28, 0x3d	; 61
    3eaa:	de b7       	in	r29, 0x3e	; 62
    3eac:	5c 01       	movw	r10, r24
    3eae:	6b 01       	movw	r12, r22
    3eb0:	20 e0       	ldi	r18, 0x00	; 0
    3eb2:	30 e0       	ldi	r19, 0x00	; 0
    3eb4:	80 e0       	ldi	r24, 0x00	; 0
    3eb6:	ae 01       	movw	r20, r28
    3eb8:	4f 5f       	subi	r20, 0xFF	; 255
    3eba:	5f 4f       	sbci	r21, 0xFF	; 255
    3ebc:	4a 01       	movw	r8, r20
    3ebe:	f5 01       	movw	r30, r10
    3ec0:	ed 5d       	subi	r30, 0xDD	; 221
    3ec2:	fe 4f       	sbci	r31, 0xFE	; 254
    3ec4:	fe 83       	std	Y+6, r31	; 0x06
    3ec6:	ed 83       	std	Y+5, r30	; 0x05
    3ec8:	15 01       	movw	r2, r10
    3eca:	ff ed       	ldi	r31, 0xDF	; 223
    3ecc:	2f 1a       	sub	r2, r31
    3ece:	fe ef       	ldi	r31, 0xFE	; 254
    3ed0:	3f 0a       	sbc	r3, r31
    3ed2:	25 01       	movw	r4, r10
    3ed4:	4b ed       	ldi	r20, 0xDB	; 219
    3ed6:	44 1a       	sub	r4, r20
    3ed8:	4e ef       	ldi	r20, 0xFE	; 254
    3eda:	54 0a       	sbc	r5, r20
    3edc:	35 01       	movw	r6, r10
    3ede:	58 ed       	ldi	r21, 0xD8	; 216
    3ee0:	65 1a       	sub	r6, r21
    3ee2:	5e ef       	ldi	r21, 0xFE	; 254
    3ee4:	75 0a       	sbc	r7, r21
    3ee6:	f6 01       	movw	r30, r12
    3ee8:	e2 0f       	add	r30, r18
    3eea:	f3 1f       	adc	r31, r19
    3eec:	00 81       	ld	r16, Z
    3eee:	00 23       	and	r16, r16
    3ef0:	09 f4       	brne	.+2      	; 0x3ef4 <VL53L0X_load_tuning_settings+0x76>
    3ef2:	86 c0       	rjmp	.+268    	; 0x4000 <VL53L0X_load_tuning_settings+0x182>
    3ef4:	81 11       	cpse	r24, r1
    3ef6:	84 c0       	rjmp	.+264    	; 0x4000 <VL53L0X_load_tuning_settings+0x182>
    3ef8:	79 01       	movw	r14, r18
    3efa:	9f ef       	ldi	r25, 0xFF	; 255
    3efc:	e9 1a       	sub	r14, r25
    3efe:	f9 0a       	sbc	r15, r25
    3f00:	0f 3f       	cpi	r16, 0xFF	; 255
    3f02:	09 f0       	breq	.+2      	; 0x3f06 <VL53L0X_load_tuning_settings+0x88>
    3f04:	59 c0       	rjmp	.+178    	; 0x3fb8 <VL53L0X_load_tuning_settings+0x13a>
    3f06:	d6 01       	movw	r26, r12
    3f08:	ae 0d       	add	r26, r14
    3f0a:	bf 1d       	adc	r27, r15
    3f0c:	9c 91       	ld	r25, X
    3f0e:	79 01       	movw	r14, r18
    3f10:	42 e0       	ldi	r20, 0x02	; 2
    3f12:	e4 0e       	add	r14, r20
    3f14:	f1 1c       	adc	r15, r1
    3f16:	91 30       	cpi	r25, 0x01	; 1
    3f18:	c9 f0       	breq	.+50     	; 0x3f4c <VL53L0X_load_tuning_settings+0xce>
    3f1a:	38 f0       	brcs	.+14     	; 0x3f2a <VL53L0X_load_tuning_settings+0xac>
    3f1c:	92 30       	cpi	r25, 0x02	; 2
    3f1e:	41 f1       	breq	.+80     	; 0x3f70 <VL53L0X_load_tuning_settings+0xf2>
    3f20:	93 30       	cpi	r25, 0x03	; 3
    3f22:	b9 f1       	breq	.+110    	; 0x3f92 <VL53L0X_load_tuning_settings+0x114>
    3f24:	8c ef       	ldi	r24, 0xFC	; 252
    3f26:	97 01       	movw	r18, r14
    3f28:	de cf       	rjmp	.-68     	; 0x3ee6 <VL53L0X_load_tuning_settings+0x68>
    3f2a:	d6 01       	movw	r26, r12
    3f2c:	ae 0d       	add	r26, r14
    3f2e:	bf 1d       	adc	r27, r15
    3f30:	9c 91       	ld	r25, X
    3f32:	79 01       	movw	r14, r18
    3f34:	54 e0       	ldi	r21, 0x04	; 4
    3f36:	e5 0e       	add	r14, r21
    3f38:	f1 1c       	adc	r15, r1
    3f3a:	43 81       	ldd	r20, Z+3	; 0x03
    3f3c:	29 2f       	mov	r18, r25
    3f3e:	30 e0       	ldi	r19, 0x00	; 0
    3f40:	32 2f       	mov	r19, r18
    3f42:	22 27       	eor	r18, r18
    3f44:	24 0f       	add	r18, r20
    3f46:	31 1d       	adc	r19, r1
    3f48:	f1 01       	movw	r30, r2
    3f4a:	33 c0       	rjmp	.+102    	; 0x3fb2 <VL53L0X_load_tuning_settings+0x134>
    3f4c:	d6 01       	movw	r26, r12
    3f4e:	ae 0d       	add	r26, r14
    3f50:	bf 1d       	adc	r27, r15
    3f52:	9c 91       	ld	r25, X
    3f54:	79 01       	movw	r14, r18
    3f56:	44 e0       	ldi	r20, 0x04	; 4
    3f58:	e4 0e       	add	r14, r20
    3f5a:	f1 1c       	adc	r15, r1
    3f5c:	43 81       	ldd	r20, Z+3	; 0x03
    3f5e:	29 2f       	mov	r18, r25
    3f60:	30 e0       	ldi	r19, 0x00	; 0
    3f62:	32 2f       	mov	r19, r18
    3f64:	22 27       	eor	r18, r18
    3f66:	24 0f       	add	r18, r20
    3f68:	31 1d       	adc	r19, r1
    3f6a:	ed 81       	ldd	r30, Y+5	; 0x05
    3f6c:	fe 81       	ldd	r31, Y+6	; 0x06
    3f6e:	21 c0       	rjmp	.+66     	; 0x3fb2 <VL53L0X_load_tuning_settings+0x134>
    3f70:	d6 01       	movw	r26, r12
    3f72:	ae 0d       	add	r26, r14
    3f74:	bf 1d       	adc	r27, r15
    3f76:	9c 91       	ld	r25, X
    3f78:	79 01       	movw	r14, r18
    3f7a:	44 e0       	ldi	r20, 0x04	; 4
    3f7c:	e4 0e       	add	r14, r20
    3f7e:	f1 1c       	adc	r15, r1
    3f80:	43 81       	ldd	r20, Z+3	; 0x03
    3f82:	29 2f       	mov	r18, r25
    3f84:	30 e0       	ldi	r19, 0x00	; 0
    3f86:	32 2f       	mov	r19, r18
    3f88:	22 27       	eor	r18, r18
    3f8a:	24 0f       	add	r18, r20
    3f8c:	31 1d       	adc	r19, r1
    3f8e:	f2 01       	movw	r30, r4
    3f90:	10 c0       	rjmp	.+32     	; 0x3fb2 <VL53L0X_load_tuning_settings+0x134>
    3f92:	d6 01       	movw	r26, r12
    3f94:	ae 0d       	add	r26, r14
    3f96:	bf 1d       	adc	r27, r15
    3f98:	9c 91       	ld	r25, X
    3f9a:	79 01       	movw	r14, r18
    3f9c:	44 e0       	ldi	r20, 0x04	; 4
    3f9e:	e4 0e       	add	r14, r20
    3fa0:	f1 1c       	adc	r15, r1
    3fa2:	43 81       	ldd	r20, Z+3	; 0x03
    3fa4:	29 2f       	mov	r18, r25
    3fa6:	30 e0       	ldi	r19, 0x00	; 0
    3fa8:	32 2f       	mov	r19, r18
    3faa:	22 27       	eor	r18, r18
    3fac:	24 0f       	add	r18, r20
    3fae:	31 1d       	adc	r19, r1
    3fb0:	f3 01       	movw	r30, r6
    3fb2:	31 83       	std	Z+1, r19	; 0x01
    3fb4:	20 83       	st	Z, r18
    3fb6:	b7 cf       	rjmp	.-146    	; 0x3f26 <VL53L0X_load_tuning_settings+0xa8>
    3fb8:	05 30       	cpi	r16, 0x05	; 5
    3fba:	08 f0       	brcs	.+2      	; 0x3fbe <VL53L0X_load_tuning_settings+0x140>
    3fbc:	b3 cf       	rjmp	.-154    	; 0x3f24 <VL53L0X_load_tuning_settings+0xa6>
    3fbe:	f6 01       	movw	r30, r12
    3fc0:	ee 0d       	add	r30, r14
    3fc2:	ff 1d       	adc	r31, r15
    3fc4:	60 81       	ld	r22, Z
    3fc6:	79 01       	movw	r14, r18
    3fc8:	f2 e0       	ldi	r31, 0x02	; 2
    3fca:	ef 0e       	add	r14, r31
    3fcc:	f1 1c       	adc	r15, r1
    3fce:	d6 01       	movw	r26, r12
    3fd0:	ae 0d       	add	r26, r14
    3fd2:	bf 1d       	adc	r27, r15
    3fd4:	f4 01       	movw	r30, r8
    3fd6:	80 2f       	mov	r24, r16
    3fd8:	90 e0       	ldi	r25, 0x00	; 0
    3fda:	9f 01       	movw	r18, r30
    3fdc:	28 19       	sub	r18, r8
    3fde:	39 09       	sbc	r19, r9
    3fe0:	28 17       	cp	r18, r24
    3fe2:	39 07       	cpc	r19, r25
    3fe4:	1c f4       	brge	.+6      	; 0x3fec <VL53L0X_load_tuning_settings+0x16e>
    3fe6:	2d 91       	ld	r18, X+
    3fe8:	21 93       	st	Z+, r18
    3fea:	f7 cf       	rjmp	.-18     	; 0x3fda <VL53L0X_load_tuning_settings+0x15c>
    3fec:	e8 0e       	add	r14, r24
    3fee:	f9 1e       	adc	r15, r25
    3ff0:	10 e0       	ldi	r17, 0x00	; 0
    3ff2:	20 e0       	ldi	r18, 0x00	; 0
    3ff4:	30 e0       	ldi	r19, 0x00	; 0
    3ff6:	a4 01       	movw	r20, r8
    3ff8:	c5 01       	movw	r24, r10
    3ffa:	0e 94 96 22 	call	0x452c	; 0x452c <VL53L0X_WriteMulti>
    3ffe:	93 cf       	rjmp	.-218    	; 0x3f26 <VL53L0X_load_tuning_settings+0xa8>
    4000:	26 96       	adiw	r28, 0x06	; 6
    4002:	0f b6       	in	r0, 0x3f	; 63
    4004:	f8 94       	cli
    4006:	de bf       	out	0x3e, r29	; 62
    4008:	0f be       	out	0x3f, r0	; 63
    400a:	cd bf       	out	0x3d, r28	; 61
    400c:	df 91       	pop	r29
    400e:	cf 91       	pop	r28
    4010:	1f 91       	pop	r17
    4012:	0f 91       	pop	r16
    4014:	ff 90       	pop	r15
    4016:	ef 90       	pop	r14
    4018:	df 90       	pop	r13
    401a:	cf 90       	pop	r12
    401c:	bf 90       	pop	r11
    401e:	af 90       	pop	r10
    4020:	9f 90       	pop	r9
    4022:	8f 90       	pop	r8
    4024:	7f 90       	pop	r7
    4026:	6f 90       	pop	r6
    4028:	5f 90       	pop	r5
    402a:	4f 90       	pop	r4
    402c:	3f 90       	pop	r3
    402e:	2f 90       	pop	r2
    4030:	08 95       	ret

00004032 <VL53L0X_get_total_xtalk_rate>:
    4032:	bf 92       	push	r11
    4034:	cf 92       	push	r12
    4036:	df 92       	push	r13
    4038:	ef 92       	push	r14
    403a:	ff 92       	push	r15
    403c:	0f 93       	push	r16
    403e:	1f 93       	push	r17
    4040:	cf 93       	push	r28
    4042:	df 93       	push	r29
    4044:	1f 92       	push	r1
    4046:	cd b7       	in	r28, 0x3d	; 61
    4048:	de b7       	in	r29, 0x3e	; 62
    404a:	7c 01       	movw	r14, r24
    404c:	6b 01       	movw	r12, r22
    404e:	8a 01       	movw	r16, r20
    4050:	da 01       	movw	r26, r20
    4052:	1d 92       	st	X+, r1
    4054:	1d 92       	st	X+, r1
    4056:	1d 92       	st	X+, r1
    4058:	1c 92       	st	X, r1
    405a:	13 97       	sbiw	r26, 0x03	; 3
    405c:	be 01       	movw	r22, r28
    405e:	6f 5f       	subi	r22, 0xFF	; 255
    4060:	7f 4f       	sbci	r23, 0xFF	; 255
    4062:	0e 94 fd 07 	call	0xffa	; 0xffa <VL53L0X_GetXTalkCompensationEnable>
    4066:	b8 2e       	mov	r11, r24
    4068:	81 11       	cpse	r24, r1
    406a:	1f c0       	rjmp	.+62     	; 0x40aa <VL53L0X_get_total_xtalk_rate+0x78>
    406c:	89 81       	ldd	r24, Y+1	; 0x01
    406e:	88 23       	and	r24, r24
    4070:	e1 f0       	breq	.+56     	; 0x40aa <VL53L0X_get_total_xtalk_rate+0x78>
    4072:	f6 01       	movw	r30, r12
    4074:	84 89       	ldd	r24, Z+20	; 0x14
    4076:	95 89       	ldd	r25, Z+21	; 0x15
    4078:	d7 01       	movw	r26, r14
    407a:	5d 96       	adiw	r26, 0x1d	; 29
    407c:	2d 91       	ld	r18, X+
    407e:	3d 91       	ld	r19, X+
    4080:	4d 91       	ld	r20, X+
    4082:	5c 91       	ld	r21, X
    4084:	90 97       	sbiw	r26, 0x20	; 32
    4086:	dc 01       	movw	r26, r24
    4088:	0e 94 c5 24 	call	0x498a	; 0x498a <__muluhisi3>
    408c:	dc 01       	movw	r26, r24
    408e:	cb 01       	movw	r24, r22
    4090:	80 58       	subi	r24, 0x80	; 128
    4092:	9f 4f       	sbci	r25, 0xFF	; 255
    4094:	af 4f       	sbci	r26, 0xFF	; 255
    4096:	bf 4f       	sbci	r27, 0xFF	; 255
    4098:	89 2f       	mov	r24, r25
    409a:	9a 2f       	mov	r25, r26
    409c:	ab 2f       	mov	r26, r27
    409e:	bb 27       	eor	r27, r27
    40a0:	f8 01       	movw	r30, r16
    40a2:	80 83       	st	Z, r24
    40a4:	91 83       	std	Z+1, r25	; 0x01
    40a6:	a2 83       	std	Z+2, r26	; 0x02
    40a8:	b3 83       	std	Z+3, r27	; 0x03
    40aa:	8b 2d       	mov	r24, r11
    40ac:	0f 90       	pop	r0
    40ae:	df 91       	pop	r29
    40b0:	cf 91       	pop	r28
    40b2:	1f 91       	pop	r17
    40b4:	0f 91       	pop	r16
    40b6:	ff 90       	pop	r15
    40b8:	ef 90       	pop	r14
    40ba:	df 90       	pop	r13
    40bc:	cf 90       	pop	r12
    40be:	bf 90       	pop	r11
    40c0:	08 95       	ret

000040c2 <VL53L0X_get_total_signal_rate>:
    40c2:	cf 92       	push	r12
    40c4:	df 92       	push	r13
    40c6:	ef 92       	push	r14
    40c8:	ff 92       	push	r15
    40ca:	0f 93       	push	r16
    40cc:	1f 93       	push	r17
    40ce:	cf 93       	push	r28
    40d0:	df 93       	push	r29
    40d2:	00 d0       	rcall	.+0      	; 0x40d4 <VL53L0X_get_total_signal_rate+0x12>
    40d4:	00 d0       	rcall	.+0      	; 0x40d6 <VL53L0X_get_total_signal_rate+0x14>
    40d6:	cd b7       	in	r28, 0x3d	; 61
    40d8:	de b7       	in	r29, 0x3e	; 62
    40da:	8a 01       	movw	r16, r20
    40dc:	fb 01       	movw	r30, r22
    40de:	c4 84       	ldd	r12, Z+12	; 0x0c
    40e0:	d5 84       	ldd	r13, Z+13	; 0x0d
    40e2:	e6 84       	ldd	r14, Z+14	; 0x0e
    40e4:	f7 84       	ldd	r15, Z+15	; 0x0f
    40e6:	fa 01       	movw	r30, r20
    40e8:	c0 82       	st	Z, r12
    40ea:	d1 82       	std	Z+1, r13	; 0x01
    40ec:	e2 82       	std	Z+2, r14	; 0x02
    40ee:	f3 82       	std	Z+3, r15	; 0x03
    40f0:	ae 01       	movw	r20, r28
    40f2:	4f 5f       	subi	r20, 0xFF	; 255
    40f4:	5f 4f       	sbci	r21, 0xFF	; 255
    40f6:	0e 94 19 20 	call	0x4032	; 0x4032 <VL53L0X_get_total_xtalk_rate>
    40fa:	81 11       	cpse	r24, r1
    40fc:	11 c0       	rjmp	.+34     	; 0x4120 <VL53L0X_get_total_signal_rate+0x5e>
    40fe:	f8 01       	movw	r30, r16
    4100:	c0 80       	ld	r12, Z
    4102:	d1 80       	ldd	r13, Z+1	; 0x01
    4104:	e2 80       	ldd	r14, Z+2	; 0x02
    4106:	f3 80       	ldd	r15, Z+3	; 0x03
    4108:	49 81       	ldd	r20, Y+1	; 0x01
    410a:	5a 81       	ldd	r21, Y+2	; 0x02
    410c:	6b 81       	ldd	r22, Y+3	; 0x03
    410e:	7c 81       	ldd	r23, Y+4	; 0x04
    4110:	4c 0d       	add	r20, r12
    4112:	5d 1d       	adc	r21, r13
    4114:	6e 1d       	adc	r22, r14
    4116:	7f 1d       	adc	r23, r15
    4118:	40 83       	st	Z, r20
    411a:	51 83       	std	Z+1, r21	; 0x01
    411c:	62 83       	std	Z+2, r22	; 0x02
    411e:	73 83       	std	Z+3, r23	; 0x03
    4120:	0f 90       	pop	r0
    4122:	0f 90       	pop	r0
    4124:	0f 90       	pop	r0
    4126:	0f 90       	pop	r0
    4128:	df 91       	pop	r29
    412a:	cf 91       	pop	r28
    412c:	1f 91       	pop	r17
    412e:	0f 91       	pop	r16
    4130:	ff 90       	pop	r15
    4132:	ef 90       	pop	r14
    4134:	df 90       	pop	r13
    4136:	cf 90       	pop	r12
    4138:	08 95       	ret

0000413a <VL53L0X_calc_sigma_estimate>:
    413a:	af 92       	push	r10
    413c:	bf 92       	push	r11
    413e:	cf 92       	push	r12
    4140:	df 92       	push	r13
    4142:	ef 92       	push	r14
    4144:	ff 92       	push	r15
    4146:	0f 93       	push	r16
    4148:	1f 93       	push	r17
    414a:	cf 93       	push	r28
    414c:	df 93       	push	r29
    414e:	cd b7       	in	r28, 0x3d	; 61
    4150:	de b7       	in	r29, 0x3e	; 62
    4152:	28 97       	sbiw	r28, 0x08	; 8
    4154:	0f b6       	in	r0, 0x3f	; 63
    4156:	f8 94       	cli
    4158:	de bf       	out	0x3e, r29	; 62
    415a:	0f be       	out	0x3f, r0	; 63
    415c:	cd bf       	out	0x3d, r28	; 61
    415e:	8c 01       	movw	r16, r24
    4160:	5b 01       	movw	r10, r22
    4162:	6a 01       	movw	r12, r20
    4164:	79 01       	movw	r14, r18
    4166:	fc 01       	movw	r30, r24
    4168:	85 8d       	ldd	r24, Z+29	; 0x1d
    416a:	96 8d       	ldd	r25, Z+30	; 0x1e
    416c:	a7 8d       	ldd	r26, Z+31	; 0x1f
    416e:	b0 a1       	ldd	r27, Z+32	; 0x20
    4170:	8d 83       	std	Y+5, r24	; 0x05
    4172:	9e 83       	std	Y+6, r25	; 0x06
    4174:	af 83       	std	Y+7, r26	; 0x07
    4176:	b8 87       	std	Y+8, r27	; 0x08
    4178:	ae 01       	movw	r20, r28
    417a:	4f 5f       	subi	r20, 0xFF	; 255
    417c:	5f 4f       	sbci	r21, 0xFF	; 255
    417e:	c8 01       	movw	r24, r16
    4180:	0e 94 61 20 	call	0x40c2	; 0x40c2 <VL53L0X_get_total_signal_rate>
    4184:	ae 01       	movw	r20, r28
    4186:	4b 5f       	subi	r20, 0xFB	; 251
    4188:	5f 4f       	sbci	r21, 0xFF	; 255
    418a:	b5 01       	movw	r22, r10
    418c:	c8 01       	movw	r24, r16
    418e:	0e 94 19 20 	call	0x4032	; 0x4032 <VL53L0X_get_total_xtalk_rate>
    4192:	b8 2e       	mov	r11, r24
    4194:	81 11       	cpse	r24, r1
    4196:	34 c0       	rjmp	.+104    	; 0x4200 <VL53L0X_calc_sigma_estimate+0xc6>
    4198:	29 81       	ldd	r18, Y+1	; 0x01
    419a:	3a 81       	ldd	r19, Y+2	; 0x02
    419c:	4b 81       	ldd	r20, Y+3	; 0x03
    419e:	5c 81       	ldd	r21, Y+4	; 0x04
    41a0:	a8 ee       	ldi	r26, 0xE8	; 232
    41a2:	b3 e0       	ldi	r27, 0x03	; 3
    41a4:	0e 94 c5 24 	call	0x498a	; 0x498a <__muluhisi3>
    41a8:	dc 01       	movw	r26, r24
    41aa:	cb 01       	movw	r24, r22
    41ac:	90 58       	subi	r25, 0x80	; 128
    41ae:	af 4f       	sbci	r26, 0xFF	; 255
    41b0:	bf 4f       	sbci	r27, 0xFF	; 255
    41b2:	cd 01       	movw	r24, r26
    41b4:	aa 27       	eor	r26, r26
    41b6:	bb 27       	eor	r27, r27
    41b8:	06 5d       	subi	r16, 0xD6	; 214
    41ba:	1e 4f       	sbci	r17, 0xFE	; 254
    41bc:	89 2b       	or	r24, r25
    41be:	8a 2b       	or	r24, r26
    41c0:	8b 2b       	or	r24, r27
    41c2:	79 f4       	brne	.+30     	; 0x41e2 <VL53L0X_calc_sigma_estimate+0xa8>
    41c4:	8e ea       	ldi	r24, 0xAE	; 174
    41c6:	97 e8       	ldi	r25, 0x87	; 135
    41c8:	af e8       	ldi	r26, 0x8F	; 143
    41ca:	b2 e0       	ldi	r27, 0x02	; 2
    41cc:	f6 01       	movw	r30, r12
    41ce:	80 83       	st	Z, r24
    41d0:	91 83       	std	Z+1, r25	; 0x01
    41d2:	a2 83       	std	Z+2, r26	; 0x02
    41d4:	b3 83       	std	Z+3, r27	; 0x03
    41d6:	f8 01       	movw	r30, r16
    41d8:	80 83       	st	Z, r24
    41da:	91 83       	std	Z+1, r25	; 0x01
    41dc:	a2 83       	std	Z+2, r26	; 0x02
    41de:	b3 83       	std	Z+3, r27	; 0x03
    41e0:	0a c0       	rjmp	.+20     	; 0x41f6 <VL53L0X_calc_sigma_estimate+0xbc>
    41e2:	f6 01       	movw	r30, r12
    41e4:	10 82       	st	Z, r1
    41e6:	11 82       	std	Z+1, r1	; 0x01
    41e8:	12 82       	std	Z+2, r1	; 0x02
    41ea:	13 82       	std	Z+3, r1	; 0x03
    41ec:	f8 01       	movw	r30, r16
    41ee:	10 82       	st	Z, r1
    41f0:	11 82       	std	Z+1, r1	; 0x01
    41f2:	12 82       	std	Z+2, r1	; 0x02
    41f4:	13 82       	std	Z+3, r1	; 0x03
    41f6:	f7 01       	movw	r30, r14
    41f8:	10 82       	st	Z, r1
    41fa:	11 82       	std	Z+1, r1	; 0x01
    41fc:	12 82       	std	Z+2, r1	; 0x02
    41fe:	13 82       	std	Z+3, r1	; 0x03
    4200:	8b 2d       	mov	r24, r11
    4202:	28 96       	adiw	r28, 0x08	; 8
    4204:	0f b6       	in	r0, 0x3f	; 63
    4206:	f8 94       	cli
    4208:	de bf       	out	0x3e, r29	; 62
    420a:	0f be       	out	0x3f, r0	; 63
    420c:	cd bf       	out	0x3d, r28	; 61
    420e:	df 91       	pop	r29
    4210:	cf 91       	pop	r28
    4212:	1f 91       	pop	r17
    4214:	0f 91       	pop	r16
    4216:	ff 90       	pop	r15
    4218:	ef 90       	pop	r14
    421a:	df 90       	pop	r13
    421c:	cf 90       	pop	r12
    421e:	bf 90       	pop	r11
    4220:	af 90       	pop	r10
    4222:	08 95       	ret

00004224 <VL53L0X_get_pal_range_status>:
    4224:	2f 92       	push	r2
    4226:	3f 92       	push	r3
    4228:	4f 92       	push	r4
    422a:	5f 92       	push	r5
    422c:	6f 92       	push	r6
    422e:	7f 92       	push	r7
    4230:	8f 92       	push	r8
    4232:	9f 92       	push	r9
    4234:	af 92       	push	r10
    4236:	bf 92       	push	r11
    4238:	cf 92       	push	r12
    423a:	df 92       	push	r13
    423c:	ef 92       	push	r14
    423e:	ff 92       	push	r15
    4240:	0f 93       	push	r16
    4242:	1f 93       	push	r17
    4244:	cf 93       	push	r28
    4246:	df 93       	push	r29
    4248:	cd b7       	in	r28, 0x3d	; 61
    424a:	de b7       	in	r29, 0x3e	; 62
    424c:	a5 97       	sbiw	r28, 0x25	; 37
    424e:	0f b6       	in	r0, 0x3f	; 63
    4250:	f8 94       	cli
    4252:	de bf       	out	0x3e, r29	; 62
    4254:	0f be       	out	0x3f, r0	; 63
    4256:	cd bf       	out	0x3d, r28	; 61
    4258:	5c 01       	movw	r10, r24
    425a:	29 a3       	std	Y+33, r18	; 0x21
    425c:	3a a3       	std	Y+34, r19	; 0x22
    425e:	4b a3       	std	Y+35, r20	; 0x23
    4260:	5c a3       	std	Y+36, r21	; 0x24
    4262:	48 01       	movw	r8, r16
    4264:	1a 8e       	std	Y+26, r1	; 0x1a
    4266:	19 8e       	std	Y+25, r1	; 0x19
    4268:	18 8e       	std	Y+24, r1	; 0x18
    426a:	1f 8a       	std	Y+23, r1	; 0x17
    426c:	1e 8a       	std	Y+22, r1	; 0x16
    426e:	1d 8a       	std	Y+21, r1	; 0x15
    4270:	19 82       	std	Y+1, r1	; 0x01
    4272:	1a 82       	std	Y+2, r1	; 0x02
    4274:	1b 82       	std	Y+3, r1	; 0x03
    4276:	1c 82       	std	Y+4, r1	; 0x04
    4278:	68 77       	andi	r22, 0x78	; 120
    427a:	26 2e       	mov	r2, r22
    427c:	31 2c       	mov	r3, r1
    427e:	93 e0       	ldi	r25, 0x03	; 3
    4280:	35 94       	asr	r3
    4282:	27 94       	ror	r2
    4284:	9a 95       	dec	r25
    4286:	e1 f7       	brne	.-8      	; 0x4280 <VL53L0X_get_pal_range_status+0x5c>
    4288:	2b 8e       	std	Y+27, r2	; 0x1b
    428a:	22 20       	and	r2, r2
    428c:	61 f0       	breq	.+24     	; 0x42a6 <VL53L0X_get_pal_range_status+0x82>
    428e:	82 2d       	mov	r24, r2
    4290:	8d 7f       	andi	r24, 0xFD	; 253
    4292:	11 e0       	ldi	r17, 0x01	; 1
    4294:	1c 8f       	std	Y+28, r17	; 0x1c
    4296:	85 30       	cpi	r24, 0x05	; 5
    4298:	41 f0       	breq	.+16     	; 0x42aa <VL53L0X_get_pal_range_status+0x86>
    429a:	84 ef       	ldi	r24, 0xF4	; 244
    429c:	82 0d       	add	r24, r2
    429e:	84 30       	cpi	r24, 0x04	; 4
    42a0:	20 f0       	brcs	.+8      	; 0x42aa <VL53L0X_get_pal_range_status+0x86>
    42a2:	1c 8e       	std	Y+28, r1	; 0x1c
    42a4:	02 c0       	rjmp	.+4      	; 0x42aa <VL53L0X_get_pal_range_status+0x86>
    42a6:	01 e0       	ldi	r16, 0x01	; 1
    42a8:	0c 8f       	std	Y+28, r16	; 0x1c
    42aa:	41 e0       	ldi	r20, 0x01	; 1
    42ac:	6f ef       	ldi	r22, 0xFF	; 255
    42ae:	c5 01       	movw	r24, r10
    42b0:	0e 94 c8 22 	call	0x4590	; 0x4590 <VL53L0X_WrByte>
    42b4:	81 11       	cpse	r24, r1
    42b6:	07 c0       	rjmp	.+14     	; 0x42c6 <VL53L0X_get_pal_range_status+0xa2>
    42b8:	ae 01       	movw	r20, r28
    42ba:	4b 5e       	subi	r20, 0xEB	; 235
    42bc:	5f 4f       	sbci	r21, 0xFF	; 255
    42be:	66 eb       	ldi	r22, 0xB6	; 182
    42c0:	c5 01       	movw	r24, r10
    42c2:	0e 94 19 23 	call	0x4632	; 0x4632 <VL53L0X_RdWord>
    42c6:	9d 89       	ldd	r25, Y+21	; 0x15
    42c8:	20 e0       	ldi	r18, 0x00	; 0
    42ca:	30 e0       	ldi	r19, 0x00	; 0
    42cc:	39 2f       	mov	r19, r25
    42ce:	33 0f       	add	r19, r19
    42d0:	29 01       	movw	r4, r18
    42d2:	61 2c       	mov	r6, r1
    42d4:	71 2c       	mov	r7, r1
    42d6:	81 11       	cpse	r24, r1
    42d8:	05 c0       	rjmp	.+10     	; 0x42e4 <VL53L0X_get_pal_range_status+0xc0>
    42da:	40 e0       	ldi	r20, 0x00	; 0
    42dc:	6f ef       	ldi	r22, 0xFF	; 255
    42de:	c5 01       	movw	r24, r10
    42e0:	0e 94 c8 22 	call	0x4590	; 0x4590 <VL53L0X_WrByte>
    42e4:	f5 01       	movw	r30, r10
    42e6:	ee 5c       	subi	r30, 0xCE	; 206
    42e8:	fe 4f       	sbci	r31, 0xFE	; 254
    42ea:	40 82       	st	Z, r4
    42ec:	51 82       	std	Z+1, r5	; 0x01
    42ee:	62 82       	std	Z+2, r6	; 0x02
    42f0:	73 82       	std	Z+3, r7	; 0x03
    42f2:	81 11       	cpse	r24, r1
    42f4:	08 c0       	rjmp	.+16     	; 0x4306 <VL53L0X_get_pal_range_status+0xe2>
    42f6:	ae 01       	movw	r20, r28
    42f8:	46 5e       	subi	r20, 0xE6	; 230
    42fa:	5f 4f       	sbci	r21, 0xFF	; 255
    42fc:	60 e0       	ldi	r22, 0x00	; 0
    42fe:	70 e0       	ldi	r23, 0x00	; 0
    4300:	c5 01       	movw	r24, r10
    4302:	0e 94 aa 08 	call	0x1154	; 0x1154 <VL53L0X_GetLimitCheckEnable>
    4306:	9a 8d       	ldd	r25, Y+26	; 0x1a
    4308:	99 23       	and	r25, r25
    430a:	79 f1       	breq	.+94     	; 0x436a <VL53L0X_get_pal_range_status+0x146>
    430c:	81 11       	cpse	r24, r1
    430e:	f3 c0       	rjmp	.+486    	; 0x44f6 <VL53L0X_get_pal_range_status+0x2d2>
    4310:	9e 01       	movw	r18, r28
    4312:	2f 5f       	subi	r18, 0xFF	; 255
    4314:	3f 4f       	sbci	r19, 0xFF	; 255
    4316:	ae 01       	movw	r20, r28
    4318:	4f 5e       	subi	r20, 0xEF	; 239
    431a:	5f 4f       	sbci	r21, 0xFF	; 255
    431c:	b7 01       	movw	r22, r14
    431e:	c5 01       	movw	r24, r10
    4320:	0e 94 9d 20 	call	0x413a	; 0x413a <VL53L0X_calc_sigma_estimate>
    4324:	81 11       	cpse	r24, r1
    4326:	e7 c0       	rjmp	.+462    	; 0x44f6 <VL53L0X_get_pal_range_status+0x2d2>
    4328:	89 81       	ldd	r24, Y+1	; 0x01
    432a:	9a 81       	ldd	r25, Y+2	; 0x02
    432c:	f7 01       	movw	r30, r14
    432e:	93 87       	std	Z+11, r25	; 0x0b
    4330:	82 87       	std	Z+10, r24	; 0x0a
    4332:	ae 01       	movw	r20, r28
    4334:	43 5f       	subi	r20, 0xF3	; 243
    4336:	5f 4f       	sbci	r21, 0xFF	; 255
    4338:	60 e0       	ldi	r22, 0x00	; 0
    433a:	70 e0       	ldi	r23, 0x00	; 0
    433c:	c5 01       	movw	r24, r10
    433e:	0e 94 1f 09 	call	0x123e	; 0x123e <VL53L0X_GetLimitCheckValue>
    4342:	4d 85       	ldd	r20, Y+13	; 0x0d
    4344:	5e 85       	ldd	r21, Y+14	; 0x0e
    4346:	6f 85       	ldd	r22, Y+15	; 0x0f
    4348:	78 89       	ldd	r23, Y+16	; 0x10
    434a:	41 15       	cp	r20, r1
    434c:	51 05       	cpc	r21, r1
    434e:	61 05       	cpc	r22, r1
    4350:	71 05       	cpc	r23, r1
    4352:	59 f0       	breq	.+22     	; 0x436a <VL53L0X_get_pal_range_status+0x146>
    4354:	01 e0       	ldi	r16, 0x01	; 1
    4356:	0d a3       	std	Y+37, r16	; 0x25
    4358:	09 89       	ldd	r16, Y+17	; 0x11
    435a:	1a 89       	ldd	r17, Y+18	; 0x12
    435c:	2b 89       	ldd	r18, Y+19	; 0x13
    435e:	3c 89       	ldd	r19, Y+20	; 0x14
    4360:	40 17       	cp	r20, r16
    4362:	51 07       	cpc	r21, r17
    4364:	62 07       	cpc	r22, r18
    4366:	73 07       	cpc	r23, r19
    4368:	08 f0       	brcs	.+2      	; 0x436c <VL53L0X_get_pal_range_status+0x148>
    436a:	1d a2       	std	Y+37, r1	; 0x25
    436c:	81 11       	cpse	r24, r1
    436e:	08 c0       	rjmp	.+16     	; 0x4380 <VL53L0X_get_pal_range_status+0x15c>
    4370:	ae 01       	movw	r20, r28
    4372:	48 5e       	subi	r20, 0xE8	; 232
    4374:	5f 4f       	sbci	r21, 0xFF	; 255
    4376:	62 e0       	ldi	r22, 0x02	; 2
    4378:	70 e0       	ldi	r23, 0x00	; 0
    437a:	c5 01       	movw	r24, r10
    437c:	0e 94 aa 08 	call	0x1154	; 0x1154 <VL53L0X_GetLimitCheckEnable>
    4380:	98 8d       	ldd	r25, Y+24	; 0x18
    4382:	99 23       	and	r25, r25
    4384:	c9 f0       	breq	.+50     	; 0x43b8 <VL53L0X_get_pal_range_status+0x194>
    4386:	81 11       	cpse	r24, r1
    4388:	23 c0       	rjmp	.+70     	; 0x43d0 <VL53L0X_get_pal_range_status+0x1ac>
    438a:	ae 01       	movw	r20, r28
    438c:	47 5f       	subi	r20, 0xF7	; 247
    438e:	5f 4f       	sbci	r21, 0xFF	; 255
    4390:	62 e0       	ldi	r22, 0x02	; 2
    4392:	70 e0       	ldi	r23, 0x00	; 0
    4394:	c5 01       	movw	r24, r10
    4396:	0e 94 1f 09 	call	0x123e	; 0x123e <VL53L0X_GetLimitCheckValue>
    439a:	49 85       	ldd	r20, Y+9	; 0x09
    439c:	5a 85       	ldd	r21, Y+10	; 0x0a
    439e:	6b 85       	ldd	r22, Y+11	; 0x0b
    43a0:	7c 85       	ldd	r23, Y+12	; 0x0c
    43a2:	41 15       	cp	r20, r1
    43a4:	51 05       	cpc	r21, r1
    43a6:	61 05       	cpc	r22, r1
    43a8:	71 05       	cpc	r23, r1
    43aa:	31 f0       	breq	.+12     	; 0x43b8 <VL53L0X_get_pal_range_status+0x194>
    43ac:	11 e0       	ldi	r17, 0x01	; 1
    43ae:	44 15       	cp	r20, r4
    43b0:	55 05       	cpc	r21, r5
    43b2:	66 05       	cpc	r22, r6
    43b4:	77 05       	cpc	r23, r7
    43b6:	08 f0       	brcs	.+2      	; 0x43ba <VL53L0X_get_pal_range_status+0x196>
    43b8:	10 e0       	ldi	r17, 0x00	; 0
    43ba:	81 11       	cpse	r24, r1
    43bc:	0a c0       	rjmp	.+20     	; 0x43d2 <VL53L0X_get_pal_range_status+0x1ae>
    43be:	ae 01       	movw	r20, r28
    43c0:	49 5e       	subi	r20, 0xE9	; 233
    43c2:	5f 4f       	sbci	r21, 0xFF	; 255
    43c4:	63 e0       	ldi	r22, 0x03	; 3
    43c6:	70 e0       	ldi	r23, 0x00	; 0
    43c8:	c5 01       	movw	r24, r10
    43ca:	0e 94 aa 08 	call	0x1154	; 0x1154 <VL53L0X_GetLimitCheckEnable>
    43ce:	01 c0       	rjmp	.+2      	; 0x43d2 <VL53L0X_get_pal_range_status+0x1ae>
    43d0:	10 e0       	ldi	r17, 0x00	; 0
    43d2:	9f 89       	ldd	r25, Y+23	; 0x17
    43d4:	99 23       	and	r25, r25
    43d6:	81 f1       	breq	.+96     	; 0x4438 <VL53L0X_get_pal_range_status+0x214>
    43d8:	81 11       	cpse	r24, r1
    43da:	5c c0       	rjmp	.+184    	; 0x4494 <VL53L0X_get_pal_range_status+0x270>
    43dc:	81 14       	cp	r8, r1
    43de:	91 04       	cpc	r9, r1
    43e0:	81 f0       	breq	.+32     	; 0x4402 <VL53L0X_get_pal_range_status+0x1de>
    43e2:	29 a1       	ldd	r18, Y+33	; 0x21
    43e4:	3a a1       	ldd	r19, Y+34	; 0x22
    43e6:	4b a1       	ldd	r20, Y+35	; 0x23
    43e8:	5c a1       	ldd	r21, Y+36	; 0x24
    43ea:	94 2f       	mov	r25, r20
    43ec:	83 2f       	mov	r24, r19
    43ee:	72 2f       	mov	r23, r18
    43f0:	66 27       	eor	r22, r22
    43f2:	94 01       	movw	r18, r8
    43f4:	40 e0       	ldi	r20, 0x00	; 0
    43f6:	50 e0       	ldi	r21, 0x00	; 0
    43f8:	0e 94 6f 24 	call	0x48de	; 0x48de <__udivmodsi4>
    43fc:	29 01       	movw	r4, r18
    43fe:	3a 01       	movw	r6, r20
    4400:	03 c0       	rjmp	.+6      	; 0x4408 <VL53L0X_get_pal_range_status+0x1e4>
    4402:	41 2c       	mov	r4, r1
    4404:	51 2c       	mov	r5, r1
    4406:	32 01       	movw	r6, r4
    4408:	ae 01       	movw	r20, r28
    440a:	4b 5f       	subi	r20, 0xFB	; 251
    440c:	5f 4f       	sbci	r21, 0xFF	; 255
    440e:	63 e0       	ldi	r22, 0x03	; 3
    4410:	70 e0       	ldi	r23, 0x00	; 0
    4412:	c5 01       	movw	r24, r10
    4414:	0e 94 1f 09 	call	0x123e	; 0x123e <VL53L0X_GetLimitCheckValue>
    4418:	4d 81       	ldd	r20, Y+5	; 0x05
    441a:	5e 81       	ldd	r21, Y+6	; 0x06
    441c:	6f 81       	ldd	r22, Y+7	; 0x07
    441e:	78 85       	ldd	r23, Y+8	; 0x08
    4420:	41 15       	cp	r20, r1
    4422:	51 05       	cpc	r21, r1
    4424:	61 05       	cpc	r22, r1
    4426:	71 05       	cpc	r23, r1
    4428:	39 f0       	breq	.+14     	; 0x4438 <VL53L0X_get_pal_range_status+0x214>
    442a:	99 24       	eor	r9, r9
    442c:	93 94       	inc	r9
    442e:	44 16       	cp	r4, r20
    4430:	55 06       	cpc	r5, r21
    4432:	66 06       	cpc	r6, r22
    4434:	77 06       	cpc	r7, r23
    4436:	08 f0       	brcs	.+2      	; 0x443a <VL53L0X_get_pal_range_status+0x216>
    4438:	91 2c       	mov	r9, r1
    443a:	81 11       	cpse	r24, r1
    443c:	2c c0       	rjmp	.+88     	; 0x4496 <VL53L0X_get_pal_range_status+0x272>
    443e:	0c 8d       	ldd	r16, Y+28	; 0x1c
    4440:	8f ef       	ldi	r24, 0xFF	; 255
    4442:	01 30       	cpi	r16, 0x01	; 1
    4444:	d9 f0       	breq	.+54     	; 0x447c <VL53L0X_get_pal_range_status+0x258>
    4446:	82 0d       	add	r24, r2
    4448:	83 30       	cpi	r24, 0x03	; 3
    444a:	10 f4       	brcc	.+4      	; 0x4450 <VL53L0X_get_pal_range_status+0x22c>
    444c:	85 e0       	ldi	r24, 0x05	; 5
    444e:	16 c0       	rjmp	.+44     	; 0x447c <VL53L0X_get_pal_range_status+0x258>
    4450:	0b 8d       	ldd	r16, Y+27	; 0x1b
    4452:	06 30       	cpi	r16, 0x06	; 6
    4454:	11 f0       	breq	.+4      	; 0x445a <VL53L0X_get_pal_range_status+0x236>
    4456:	09 30       	cpi	r16, 0x09	; 9
    4458:	11 f4       	brne	.+4      	; 0x445e <VL53L0X_get_pal_range_status+0x23a>
    445a:	84 e0       	ldi	r24, 0x04	; 4
    445c:	0f c0       	rjmp	.+30     	; 0x447c <VL53L0X_get_pal_range_status+0x258>
    445e:	62 2d       	mov	r22, r2
    4460:	6d 7f       	andi	r22, 0xFD	; 253
    4462:	68 30       	cpi	r22, 0x08	; 8
    4464:	11 f0       	breq	.+4      	; 0x446a <VL53L0X_get_pal_range_status+0x246>
    4466:	11 30       	cpi	r17, 0x01	; 1
    4468:	11 f4       	brne	.+4      	; 0x446e <VL53L0X_get_pal_range_status+0x24a>
    446a:	83 e0       	ldi	r24, 0x03	; 3
    446c:	07 c0       	rjmp	.+14     	; 0x447c <VL53L0X_get_pal_range_status+0x258>
    446e:	0b 8d       	ldd	r16, Y+27	; 0x1b
    4470:	04 30       	cpi	r16, 0x04	; 4
    4472:	19 f0       	breq	.+6      	; 0x447a <VL53L0X_get_pal_range_status+0x256>
    4474:	21 e0       	ldi	r18, 0x01	; 1
    4476:	92 12       	cpse	r9, r18
    4478:	04 c0       	rjmp	.+8      	; 0x4482 <VL53L0X_get_pal_range_status+0x25e>
    447a:	82 e0       	ldi	r24, 0x02	; 2
    447c:	f6 01       	movw	r30, r12
    447e:	80 83       	st	Z, r24
    4480:	0a c0       	rjmp	.+20     	; 0x4496 <VL53L0X_get_pal_range_status+0x272>
    4482:	0d a1       	ldd	r16, Y+37	; 0x25
    4484:	01 30       	cpi	r16, 0x01	; 1
    4486:	21 f4       	brne	.+8      	; 0x4490 <VL53L0X_get_pal_range_status+0x26c>
    4488:	81 e0       	ldi	r24, 0x01	; 1
    448a:	f6 01       	movw	r30, r12
    448c:	80 83       	st	Z, r24
    448e:	02 c0       	rjmp	.+4      	; 0x4494 <VL53L0X_get_pal_range_status+0x270>
    4490:	f6 01       	movw	r30, r12
    4492:	10 82       	st	Z, r1
    4494:	91 2c       	mov	r9, r1
    4496:	f6 01       	movw	r30, r12
    4498:	80 81       	ld	r24, Z
    449a:	81 11       	cpse	r24, r1
    449c:	03 c0       	rjmp	.+6      	; 0x44a4 <VL53L0X_get_pal_range_status+0x280>
    449e:	f7 01       	movw	r30, r14
    44a0:	13 86       	std	Z+11, r1	; 0x0b
    44a2:	12 86       	std	Z+10, r1	; 0x0a
    44a4:	ae 01       	movw	r20, r28
    44a6:	47 5e       	subi	r20, 0xE7	; 231
    44a8:	5f 4f       	sbci	r21, 0xFF	; 255
    44aa:	61 e0       	ldi	r22, 0x01	; 1
    44ac:	70 e0       	ldi	r23, 0x00	; 0
    44ae:	c5 01       	movw	r24, r10
    44b0:	0e 94 aa 08 	call	0x1154	; 0x1154 <VL53L0X_GetLimitCheckEnable>
    44b4:	81 11       	cpse	r24, r1
    44b6:	21 c0       	rjmp	.+66     	; 0x44fa <VL53L0X_get_pal_range_status+0x2d6>
    44b8:	9a 8d       	ldd	r25, Y+26	; 0x1a
    44ba:	91 11       	cpse	r25, r1
    44bc:	02 c0       	rjmp	.+4      	; 0x44c2 <VL53L0X_get_pal_range_status+0x29e>
    44be:	01 e0       	ldi	r16, 0x01	; 1
    44c0:	0d a3       	std	Y+37, r16	; 0x25
    44c2:	0d a1       	ldd	r16, Y+37	; 0x25
    44c4:	f5 01       	movw	r30, r10
    44c6:	03 a7       	std	Z+43, r16	; 0x2b
    44c8:	0b 8d       	ldd	r16, Y+27	; 0x1b
    44ca:	91 e0       	ldi	r25, 0x01	; 1
    44cc:	04 30       	cpi	r16, 0x04	; 4
    44ce:	19 f0       	breq	.+6      	; 0x44d6 <VL53L0X_get_pal_range_status+0x2b2>
    44d0:	29 8d       	ldd	r18, Y+25	; 0x19
    44d2:	21 11       	cpse	r18, r1
    44d4:	90 e0       	ldi	r25, 0x00	; 0
    44d6:	f5 01       	movw	r30, r10
    44d8:	94 a7       	std	Z+44, r25	; 0x2c
    44da:	98 8d       	ldd	r25, Y+24	; 0x18
    44dc:	91 11       	cpse	r25, r1
    44de:	01 c0       	rjmp	.+2      	; 0x44e2 <VL53L0X_get_pal_range_status+0x2be>
    44e0:	11 e0       	ldi	r17, 0x01	; 1
    44e2:	f5 01       	movw	r30, r10
    44e4:	15 a7       	std	Z+45, r17	; 0x2d
    44e6:	9f 89       	ldd	r25, Y+23	; 0x17
    44e8:	91 11       	cpse	r25, r1
    44ea:	02 c0       	rjmp	.+4      	; 0x44f0 <VL53L0X_get_pal_range_status+0x2cc>
    44ec:	99 24       	eor	r9, r9
    44ee:	93 94       	inc	r9
    44f0:	f5 01       	movw	r30, r10
    44f2:	96 a6       	std	Z+46, r9	; 0x2e
    44f4:	02 c0       	rjmp	.+4      	; 0x44fa <VL53L0X_get_pal_range_status+0x2d6>
    44f6:	1d a2       	std	Y+37, r1	; 0x25
    44f8:	43 cf       	rjmp	.-378    	; 0x4380 <VL53L0X_get_pal_range_status+0x15c>
    44fa:	a5 96       	adiw	r28, 0x25	; 37
    44fc:	0f b6       	in	r0, 0x3f	; 63
    44fe:	f8 94       	cli
    4500:	de bf       	out	0x3e, r29	; 62
    4502:	0f be       	out	0x3f, r0	; 63
    4504:	cd bf       	out	0x3d, r28	; 61
    4506:	df 91       	pop	r29
    4508:	cf 91       	pop	r28
    450a:	1f 91       	pop	r17
    450c:	0f 91       	pop	r16
    450e:	ff 90       	pop	r15
    4510:	ef 90       	pop	r14
    4512:	df 90       	pop	r13
    4514:	cf 90       	pop	r12
    4516:	bf 90       	pop	r11
    4518:	af 90       	pop	r10
    451a:	9f 90       	pop	r9
    451c:	8f 90       	pop	r8
    451e:	7f 90       	pop	r7
    4520:	6f 90       	pop	r6
    4522:	5f 90       	pop	r5
    4524:	4f 90       	pop	r4
    4526:	3f 90       	pop	r3
    4528:	2f 90       	pop	r2
    452a:	08 95       	ret

0000452c <VL53L0X_WriteMulti>:
    452c:	0f 93       	push	r16
    452e:	1f 93       	push	r17
    4530:	cf 93       	push	r28
    4532:	00 34       	cpi	r16, 0x40	; 64
    4534:	11 05       	cpc	r17, r1
    4536:	21 05       	cpc	r18, r1
    4538:	31 05       	cpc	r19, r1
    453a:	10 f0       	brcs	.+4      	; 0x4540 <VL53L0X_WriteMulti+0x14>
    453c:	cc ef       	ldi	r28, 0xFC	; 252
    453e:	01 c0       	rjmp	.+2      	; 0x4542 <VL53L0X_WriteMulti+0x16>
    4540:	c0 e0       	ldi	r28, 0x00	; 0
    4542:	fc 01       	movw	r30, r24
    4544:	ef 5b       	subi	r30, 0xBF	; 191
    4546:	fe 4f       	sbci	r31, 0xFE	; 254
    4548:	80 81       	ld	r24, Z
    454a:	0e 94 59 23 	call	0x46b2	; 0x46b2 <_Z19VL53L0X_write_multihhPhm>
    454e:	89 2b       	or	r24, r25
    4550:	09 f0       	breq	.+2      	; 0x4554 <VL53L0X_WriteMulti+0x28>
    4552:	cc ee       	ldi	r28, 0xEC	; 236
    4554:	8c 2f       	mov	r24, r28
    4556:	cf 91       	pop	r28
    4558:	1f 91       	pop	r17
    455a:	0f 91       	pop	r16
    455c:	08 95       	ret

0000455e <VL53L0X_ReadMulti>:
    455e:	0f 93       	push	r16
    4560:	1f 93       	push	r17
    4562:	cf 93       	push	r28
    4564:	00 34       	cpi	r16, 0x40	; 64
    4566:	11 05       	cpc	r17, r1
    4568:	21 05       	cpc	r18, r1
    456a:	31 05       	cpc	r19, r1
    456c:	10 f0       	brcs	.+4      	; 0x4572 <VL53L0X_ReadMulti+0x14>
    456e:	cc ef       	ldi	r28, 0xFC	; 252
    4570:	01 c0       	rjmp	.+2      	; 0x4574 <VL53L0X_ReadMulti+0x16>
    4572:	c0 e0       	ldi	r28, 0x00	; 0
    4574:	fc 01       	movw	r30, r24
    4576:	ef 5b       	subi	r30, 0xBF	; 191
    4578:	fe 4f       	sbci	r31, 0xFE	; 254
    457a:	80 81       	ld	r24, Z
    457c:	0e 94 8b 23 	call	0x4716	; 0x4716 <_Z18VL53L0X_read_multihhPhm>
    4580:	89 2b       	or	r24, r25
    4582:	09 f0       	breq	.+2      	; 0x4586 <VL53L0X_ReadMulti+0x28>
    4584:	cc ee       	ldi	r28, 0xEC	; 236
    4586:	8c 2f       	mov	r24, r28
    4588:	cf 91       	pop	r28
    458a:	1f 91       	pop	r17
    458c:	0f 91       	pop	r16
    458e:	08 95       	ret

00004590 <VL53L0X_WrByte>:
    4590:	8f 5b       	subi	r24, 0xBF	; 191
    4592:	9e 4f       	sbci	r25, 0xFE	; 254
    4594:	fc 01       	movw	r30, r24
    4596:	80 81       	ld	r24, Z
    4598:	0e 94 c5 23 	call	0x478a	; 0x478a <_Z18VL53L0X_write_bytehhh>
    459c:	89 2b       	or	r24, r25
    459e:	11 f0       	breq	.+4      	; 0x45a4 <VL53L0X_WrByte+0x14>
    45a0:	8c ee       	ldi	r24, 0xEC	; 236
    45a2:	08 95       	ret
    45a4:	80 e0       	ldi	r24, 0x00	; 0
    45a6:	08 95       	ret

000045a8 <VL53L0X_WrWord>:
    45a8:	8f 5b       	subi	r24, 0xBF	; 191
    45aa:	9e 4f       	sbci	r25, 0xFE	; 254
    45ac:	fc 01       	movw	r30, r24
    45ae:	80 81       	ld	r24, Z
    45b0:	0e 94 dc 23 	call	0x47b8	; 0x47b8 <_Z18VL53L0X_write_wordhhj>
    45b4:	89 2b       	or	r24, r25
    45b6:	11 f0       	breq	.+4      	; 0x45bc <VL53L0X_WrWord+0x14>
    45b8:	8c ee       	ldi	r24, 0xEC	; 236
    45ba:	08 95       	ret
    45bc:	80 e0       	ldi	r24, 0x00	; 0
    45be:	08 95       	ret

000045c0 <VL53L0X_UpdateByte>:
    45c0:	ef 92       	push	r14
    45c2:	ff 92       	push	r15
    45c4:	0f 93       	push	r16
    45c6:	1f 93       	push	r17
    45c8:	cf 93       	push	r28
    45ca:	df 93       	push	r29
    45cc:	1f 92       	push	r1
    45ce:	cd b7       	in	r28, 0x3d	; 61
    45d0:	de b7       	in	r29, 0x3e	; 62
    45d2:	f6 2e       	mov	r15, r22
    45d4:	e4 2e       	mov	r14, r20
    45d6:	12 2f       	mov	r17, r18
    45d8:	8f 5b       	subi	r24, 0xBF	; 191
    45da:	9e 4f       	sbci	r25, 0xFE	; 254
    45dc:	fc 01       	movw	r30, r24
    45de:	00 81       	ld	r16, Z
    45e0:	ae 01       	movw	r20, r28
    45e2:	4f 5f       	subi	r20, 0xFF	; 255
    45e4:	5f 4f       	sbci	r21, 0xFF	; 255
    45e6:	80 2f       	mov	r24, r16
    45e8:	0e 94 f5 23 	call	0x47ea	; 0x47ea <_Z17VL53L0X_read_bytehhPh>
    45ec:	89 2b       	or	r24, r25
    45ee:	11 f0       	breq	.+4      	; 0x45f4 <VL53L0X_UpdateByte+0x34>
    45f0:	8c ee       	ldi	r24, 0xEC	; 236
    45f2:	0b c0       	rjmp	.+22     	; 0x460a <VL53L0X_UpdateByte+0x4a>
    45f4:	49 81       	ldd	r20, Y+1	; 0x01
    45f6:	4e 21       	and	r20, r14
    45f8:	41 2b       	or	r20, r17
    45fa:	49 83       	std	Y+1, r20	; 0x01
    45fc:	6f 2d       	mov	r22, r15
    45fe:	80 2f       	mov	r24, r16
    4600:	0e 94 c5 23 	call	0x478a	; 0x478a <_Z18VL53L0X_write_bytehhh>
    4604:	89 2b       	or	r24, r25
    4606:	a1 f7       	brne	.-24     	; 0x45f0 <VL53L0X_UpdateByte+0x30>
    4608:	80 e0       	ldi	r24, 0x00	; 0
    460a:	0f 90       	pop	r0
    460c:	df 91       	pop	r29
    460e:	cf 91       	pop	r28
    4610:	1f 91       	pop	r17
    4612:	0f 91       	pop	r16
    4614:	ff 90       	pop	r15
    4616:	ef 90       	pop	r14
    4618:	08 95       	ret

0000461a <VL53L0X_RdByte>:
    461a:	8f 5b       	subi	r24, 0xBF	; 191
    461c:	9e 4f       	sbci	r25, 0xFE	; 254
    461e:	fc 01       	movw	r30, r24
    4620:	80 81       	ld	r24, Z
    4622:	0e 94 f5 23 	call	0x47ea	; 0x47ea <_Z17VL53L0X_read_bytehhPh>
    4626:	89 2b       	or	r24, r25
    4628:	11 f0       	breq	.+4      	; 0x462e <VL53L0X_RdByte+0x14>
    462a:	8c ee       	ldi	r24, 0xEC	; 236
    462c:	08 95       	ret
    462e:	80 e0       	ldi	r24, 0x00	; 0
    4630:	08 95       	ret

00004632 <VL53L0X_RdWord>:
    4632:	8f 5b       	subi	r24, 0xBF	; 191
    4634:	9e 4f       	sbci	r25, 0xFE	; 254
    4636:	fc 01       	movw	r30, r24
    4638:	80 81       	ld	r24, Z
    463a:	0e 94 00 24 	call	0x4800	; 0x4800 <_Z17VL53L0X_read_wordhhPj>
    463e:	89 2b       	or	r24, r25
    4640:	11 f0       	breq	.+4      	; 0x4646 <VL53L0X_RdWord+0x14>
    4642:	8c ee       	ldi	r24, 0xEC	; 236
    4644:	08 95       	ret
    4646:	80 e0       	ldi	r24, 0x00	; 0
    4648:	08 95       	ret

0000464a <VL53L0X_RdDWord>:
    464a:	8f 5b       	subi	r24, 0xBF	; 191
    464c:	9e 4f       	sbci	r25, 0xFE	; 254
    464e:	fc 01       	movw	r30, r24
    4650:	80 81       	ld	r24, Z
    4652:	0e 94 24 24 	call	0x4848	; 0x4848 <_Z18VL53L0X_read_dwordhhPm>
    4656:	89 2b       	or	r24, r25
    4658:	11 f0       	breq	.+4      	; 0x465e <VL53L0X_RdDWord+0x14>
    465a:	8c ee       	ldi	r24, 0xEC	; 236
    465c:	08 95       	ret
    465e:	80 e0       	ldi	r24, 0x00	; 0
    4660:	08 95       	ret

00004662 <VL53L0X_PollingDelay>:
    4662:	cf 93       	push	r28
    4664:	df 93       	push	r29
    4666:	00 d0       	rcall	.+0      	; 0x4668 <VL53L0X_PollingDelay+0x6>
    4668:	00 d0       	rcall	.+0      	; 0x466a <VL53L0X_PollingDelay+0x8>
    466a:	cd b7       	in	r28, 0x3d	; 61
    466c:	de b7       	in	r29, 0x3e	; 62
    466e:	19 82       	std	Y+1, r1	; 0x01
    4670:	1a 82       	std	Y+2, r1	; 0x02
    4672:	1b 82       	std	Y+3, r1	; 0x03
    4674:	1c 82       	std	Y+4, r1	; 0x04
    4676:	89 81       	ldd	r24, Y+1	; 0x01
    4678:	9a 81       	ldd	r25, Y+2	; 0x02
    467a:	ab 81       	ldd	r26, Y+3	; 0x03
    467c:	bc 81       	ldd	r27, Y+4	; 0x04
    467e:	8a 3f       	cpi	r24, 0xFA	; 250
    4680:	91 05       	cpc	r25, r1
    4682:	a1 05       	cpc	r26, r1
    4684:	b1 05       	cpc	r27, r1
    4686:	68 f4       	brcc	.+26     	; 0x46a2 <VL53L0X_PollingDelay+0x40>
    4688:	00 00       	nop
    468a:	89 81       	ldd	r24, Y+1	; 0x01
    468c:	9a 81       	ldd	r25, Y+2	; 0x02
    468e:	ab 81       	ldd	r26, Y+3	; 0x03
    4690:	bc 81       	ldd	r27, Y+4	; 0x04
    4692:	01 96       	adiw	r24, 0x01	; 1
    4694:	a1 1d       	adc	r26, r1
    4696:	b1 1d       	adc	r27, r1
    4698:	89 83       	std	Y+1, r24	; 0x01
    469a:	9a 83       	std	Y+2, r25	; 0x02
    469c:	ab 83       	std	Y+3, r26	; 0x03
    469e:	bc 83       	std	Y+4, r27	; 0x04
    46a0:	ea cf       	rjmp	.-44     	; 0x4676 <VL53L0X_PollingDelay+0x14>
    46a2:	80 e0       	ldi	r24, 0x00	; 0
    46a4:	0f 90       	pop	r0
    46a6:	0f 90       	pop	r0
    46a8:	0f 90       	pop	r0
    46aa:	0f 90       	pop	r0
    46ac:	df 91       	pop	r29
    46ae:	cf 91       	pop	r28
    46b0:	08 95       	ret

000046b2 <_Z19VL53L0X_write_multihhPhm>:
    46b2:	af 92       	push	r10
    46b4:	bf 92       	push	r11
    46b6:	cf 92       	push	r12
    46b8:	df 92       	push	r13
    46ba:	ef 92       	push	r14
    46bc:	ff 92       	push	r15
    46be:	0f 93       	push	r16
    46c0:	1f 93       	push	r17
    46c2:	cf 93       	push	r28
    46c4:	df 93       	push	r29
    46c6:	f6 2e       	mov	r15, r22
    46c8:	ea 01       	movw	r28, r20
    46ca:	59 01       	movw	r10, r18
    46cc:	88 0f       	add	r24, r24
    46ce:	0e 94 89 00 	call	0x112	; 0x112 <_Z9i2c_starth>
    46d2:	8f 2d       	mov	r24, r15
    46d4:	0e 94 ab 00 	call	0x156	; 0x156 <_Z9i2c_writeh>
    46d8:	68 01       	movw	r12, r16
    46da:	75 01       	movw	r14, r10
    46dc:	c1 14       	cp	r12, r1
    46de:	d1 04       	cpc	r13, r1
    46e0:	e1 04       	cpc	r14, r1
    46e2:	f1 04       	cpc	r15, r1
    46e4:	49 f0       	breq	.+18     	; 0x46f8 <_Z19VL53L0X_write_multihhPhm+0x46>
    46e6:	89 91       	ld	r24, Y+
    46e8:	0e 94 ab 00 	call	0x156	; 0x156 <_Z9i2c_writeh>
    46ec:	81 e0       	ldi	r24, 0x01	; 1
    46ee:	c8 1a       	sub	r12, r24
    46f0:	d1 08       	sbc	r13, r1
    46f2:	e1 08       	sbc	r14, r1
    46f4:	f1 08       	sbc	r15, r1
    46f6:	f2 cf       	rjmp	.-28     	; 0x46dc <_Z19VL53L0X_write_multihhPhm+0x2a>
    46f8:	0e 94 c6 00 	call	0x18c	; 0x18c <_Z8i2c_stopv>
    46fc:	80 e0       	ldi	r24, 0x00	; 0
    46fe:	90 e0       	ldi	r25, 0x00	; 0
    4700:	df 91       	pop	r29
    4702:	cf 91       	pop	r28
    4704:	1f 91       	pop	r17
    4706:	0f 91       	pop	r16
    4708:	ff 90       	pop	r15
    470a:	ef 90       	pop	r14
    470c:	df 90       	pop	r13
    470e:	cf 90       	pop	r12
    4710:	bf 90       	pop	r11
    4712:	af 90       	pop	r10
    4714:	08 95       	ret

00004716 <_Z18VL53L0X_read_multihhPhm>:
    4716:	af 92       	push	r10
    4718:	bf 92       	push	r11
    471a:	cf 92       	push	r12
    471c:	df 92       	push	r13
    471e:	ef 92       	push	r14
    4720:	ff 92       	push	r15
    4722:	0f 93       	push	r16
    4724:	1f 93       	push	r17
    4726:	cf 93       	push	r28
    4728:	df 93       	push	r29
    472a:	f8 2e       	mov	r15, r24
    472c:	e6 2e       	mov	r14, r22
    472e:	ea 01       	movw	r28, r20
    4730:	59 01       	movw	r10, r18
    4732:	88 0f       	add	r24, r24
    4734:	0e 94 89 00 	call	0x112	; 0x112 <_Z9i2c_starth>
    4738:	8e 2d       	mov	r24, r14
    473a:	0e 94 ab 00 	call	0x156	; 0x156 <_Z9i2c_writeh>
    473e:	0e 94 c6 00 	call	0x18c	; 0x18c <_Z8i2c_stopv>
    4742:	8f 2d       	mov	r24, r15
    4744:	88 0f       	add	r24, r24
    4746:	81 60       	ori	r24, 0x01	; 1
    4748:	0e 94 89 00 	call	0x112	; 0x112 <_Z9i2c_starth>
    474c:	68 01       	movw	r12, r16
    474e:	75 01       	movw	r14, r10
    4750:	c1 14       	cp	r12, r1
    4752:	d1 04       	cpc	r13, r1
    4754:	e1 04       	cpc	r14, r1
    4756:	f1 04       	cpc	r15, r1
    4758:	49 f0       	breq	.+18     	; 0x476c <_Z18VL53L0X_read_multihhPhm+0x56>
    475a:	0e 94 bc 00 	call	0x178	; 0x178 <_Z12i2c_read_ackv>
    475e:	89 93       	st	Y+, r24
    4760:	81 e0       	ldi	r24, 0x01	; 1
    4762:	c8 1a       	sub	r12, r24
    4764:	d1 08       	sbc	r13, r1
    4766:	e1 08       	sbc	r14, r1
    4768:	f1 08       	sbc	r15, r1
    476a:	f2 cf       	rjmp	.-28     	; 0x4750 <_Z18VL53L0X_read_multihhPhm+0x3a>
    476c:	0e 94 c6 00 	call	0x18c	; 0x18c <_Z8i2c_stopv>
    4770:	80 e0       	ldi	r24, 0x00	; 0
    4772:	90 e0       	ldi	r25, 0x00	; 0
    4774:	df 91       	pop	r29
    4776:	cf 91       	pop	r28
    4778:	1f 91       	pop	r17
    477a:	0f 91       	pop	r16
    477c:	ff 90       	pop	r15
    477e:	ef 90       	pop	r14
    4780:	df 90       	pop	r13
    4782:	cf 90       	pop	r12
    4784:	bf 90       	pop	r11
    4786:	af 90       	pop	r10
    4788:	08 95       	ret

0000478a <_Z18VL53L0X_write_bytehhh>:
    478a:	0f 93       	push	r16
    478c:	1f 93       	push	r17
    478e:	cf 93       	push	r28
    4790:	df 93       	push	r29
    4792:	1f 92       	push	r1
    4794:	cd b7       	in	r28, 0x3d	; 61
    4796:	de b7       	in	r29, 0x3e	; 62
    4798:	49 83       	std	Y+1, r20	; 0x01
    479a:	01 e0       	ldi	r16, 0x01	; 1
    479c:	10 e0       	ldi	r17, 0x00	; 0
    479e:	20 e0       	ldi	r18, 0x00	; 0
    47a0:	30 e0       	ldi	r19, 0x00	; 0
    47a2:	ae 01       	movw	r20, r28
    47a4:	4f 5f       	subi	r20, 0xFF	; 255
    47a6:	5f 4f       	sbci	r21, 0xFF	; 255
    47a8:	0e 94 59 23 	call	0x46b2	; 0x46b2 <_Z19VL53L0X_write_multihhPhm>
    47ac:	0f 90       	pop	r0
    47ae:	df 91       	pop	r29
    47b0:	cf 91       	pop	r28
    47b2:	1f 91       	pop	r17
    47b4:	0f 91       	pop	r16
    47b6:	08 95       	ret

000047b8 <_Z18VL53L0X_write_wordhhj>:
    47b8:	0f 93       	push	r16
    47ba:	1f 93       	push	r17
    47bc:	cf 93       	push	r28
    47be:	df 93       	push	r29
    47c0:	00 d0       	rcall	.+0      	; 0x47c2 <_Z18VL53L0X_write_wordhhj+0xa>
    47c2:	cd b7       	in	r28, 0x3d	; 61
    47c4:	de b7       	in	r29, 0x3e	; 62
    47c6:	4a 83       	std	Y+2, r20	; 0x02
    47c8:	59 83       	std	Y+1, r21	; 0x01
    47ca:	02 e0       	ldi	r16, 0x02	; 2
    47cc:	10 e0       	ldi	r17, 0x00	; 0
    47ce:	20 e0       	ldi	r18, 0x00	; 0
    47d0:	30 e0       	ldi	r19, 0x00	; 0
    47d2:	ae 01       	movw	r20, r28
    47d4:	4f 5f       	subi	r20, 0xFF	; 255
    47d6:	5f 4f       	sbci	r21, 0xFF	; 255
    47d8:	0e 94 59 23 	call	0x46b2	; 0x46b2 <_Z19VL53L0X_write_multihhPhm>
    47dc:	0f 90       	pop	r0
    47de:	0f 90       	pop	r0
    47e0:	df 91       	pop	r29
    47e2:	cf 91       	pop	r28
    47e4:	1f 91       	pop	r17
    47e6:	0f 91       	pop	r16
    47e8:	08 95       	ret

000047ea <_Z17VL53L0X_read_bytehhPh>:
    47ea:	0f 93       	push	r16
    47ec:	1f 93       	push	r17
    47ee:	01 e0       	ldi	r16, 0x01	; 1
    47f0:	10 e0       	ldi	r17, 0x00	; 0
    47f2:	20 e0       	ldi	r18, 0x00	; 0
    47f4:	30 e0       	ldi	r19, 0x00	; 0
    47f6:	0e 94 8b 23 	call	0x4716	; 0x4716 <_Z18VL53L0X_read_multihhPhm>
    47fa:	1f 91       	pop	r17
    47fc:	0f 91       	pop	r16
    47fe:	08 95       	ret

00004800 <_Z17VL53L0X_read_wordhhPj>:
    4800:	ef 92       	push	r14
    4802:	ff 92       	push	r15
    4804:	0f 93       	push	r16
    4806:	1f 93       	push	r17
    4808:	cf 93       	push	r28
    480a:	df 93       	push	r29
    480c:	00 d0       	rcall	.+0      	; 0x480e <_Z17VL53L0X_read_wordhhPj+0xe>
    480e:	cd b7       	in	r28, 0x3d	; 61
    4810:	de b7       	in	r29, 0x3e	; 62
    4812:	7a 01       	movw	r14, r20
    4814:	02 e0       	ldi	r16, 0x02	; 2
    4816:	10 e0       	ldi	r17, 0x00	; 0
    4818:	20 e0       	ldi	r18, 0x00	; 0
    481a:	30 e0       	ldi	r19, 0x00	; 0
    481c:	ae 01       	movw	r20, r28
    481e:	4f 5f       	subi	r20, 0xFF	; 255
    4820:	5f 4f       	sbci	r21, 0xFF	; 255
    4822:	0e 94 8b 23 	call	0x4716	; 0x4716 <_Z18VL53L0X_read_multihhPhm>
    4826:	29 81       	ldd	r18, Y+1	; 0x01
    4828:	3a 81       	ldd	r19, Y+2	; 0x02
    482a:	32 27       	eor	r19, r18
    482c:	23 27       	eor	r18, r19
    482e:	32 27       	eor	r19, r18
    4830:	f7 01       	movw	r30, r14
    4832:	31 83       	std	Z+1, r19	; 0x01
    4834:	20 83       	st	Z, r18
    4836:	0f 90       	pop	r0
    4838:	0f 90       	pop	r0
    483a:	df 91       	pop	r29
    483c:	cf 91       	pop	r28
    483e:	1f 91       	pop	r17
    4840:	0f 91       	pop	r16
    4842:	ff 90       	pop	r15
    4844:	ef 90       	pop	r14
    4846:	08 95       	ret

00004848 <_Z18VL53L0X_read_dwordhhPm>:
    4848:	ef 92       	push	r14
    484a:	ff 92       	push	r15
    484c:	0f 93       	push	r16
    484e:	1f 93       	push	r17
    4850:	cf 93       	push	r28
    4852:	df 93       	push	r29
    4854:	00 d0       	rcall	.+0      	; 0x4856 <_Z18VL53L0X_read_dwordhhPm+0xe>
    4856:	00 d0       	rcall	.+0      	; 0x4858 <_Z18VL53L0X_read_dwordhhPm+0x10>
    4858:	cd b7       	in	r28, 0x3d	; 61
    485a:	de b7       	in	r29, 0x3e	; 62
    485c:	7a 01       	movw	r14, r20
    485e:	04 e0       	ldi	r16, 0x04	; 4
    4860:	10 e0       	ldi	r17, 0x00	; 0
    4862:	20 e0       	ldi	r18, 0x00	; 0
    4864:	30 e0       	ldi	r19, 0x00	; 0
    4866:	ae 01       	movw	r20, r28
    4868:	4f 5f       	subi	r20, 0xFF	; 255
    486a:	5f 4f       	sbci	r21, 0xFF	; 255
    486c:	0e 94 8b 23 	call	0x4716	; 0x4716 <_Z18VL53L0X_read_multihhPhm>
    4870:	49 81       	ldd	r20, Y+1	; 0x01
    4872:	5a 81       	ldd	r21, Y+2	; 0x02
    4874:	54 27       	eor	r21, r20
    4876:	45 27       	eor	r20, r21
    4878:	54 27       	eor	r21, r20
    487a:	60 e0       	ldi	r22, 0x00	; 0
    487c:	70 e0       	ldi	r23, 0x00	; 0
    487e:	76 2f       	mov	r23, r22
    4880:	65 2f       	mov	r22, r21
    4882:	54 2f       	mov	r21, r20
    4884:	44 27       	eor	r20, r20
    4886:	2b 81       	ldd	r18, Y+3	; 0x03
    4888:	42 2b       	or	r20, r18
    488a:	76 2f       	mov	r23, r22
    488c:	65 2f       	mov	r22, r21
    488e:	54 2f       	mov	r21, r20
    4890:	44 27       	eor	r20, r20
    4892:	2c 81       	ldd	r18, Y+4	; 0x04
    4894:	42 2b       	or	r20, r18
    4896:	f7 01       	movw	r30, r14
    4898:	40 83       	st	Z, r20
    489a:	51 83       	std	Z+1, r21	; 0x01
    489c:	62 83       	std	Z+2, r22	; 0x02
    489e:	73 83       	std	Z+3, r23	; 0x03
    48a0:	0f 90       	pop	r0
    48a2:	0f 90       	pop	r0
    48a4:	0f 90       	pop	r0
    48a6:	0f 90       	pop	r0
    48a8:	df 91       	pop	r29
    48aa:	cf 91       	pop	r28
    48ac:	1f 91       	pop	r17
    48ae:	0f 91       	pop	r16
    48b0:	ff 90       	pop	r15
    48b2:	ef 90       	pop	r14
    48b4:	08 95       	ret

000048b6 <__udivmodhi4>:
    48b6:	aa 1b       	sub	r26, r26
    48b8:	bb 1b       	sub	r27, r27
    48ba:	51 e1       	ldi	r21, 0x11	; 17
    48bc:	07 c0       	rjmp	.+14     	; 0x48cc <__udivmodhi4_ep>

000048be <__udivmodhi4_loop>:
    48be:	aa 1f       	adc	r26, r26
    48c0:	bb 1f       	adc	r27, r27
    48c2:	a6 17       	cp	r26, r22
    48c4:	b7 07       	cpc	r27, r23
    48c6:	10 f0       	brcs	.+4      	; 0x48cc <__udivmodhi4_ep>
    48c8:	a6 1b       	sub	r26, r22
    48ca:	b7 0b       	sbc	r27, r23

000048cc <__udivmodhi4_ep>:
    48cc:	88 1f       	adc	r24, r24
    48ce:	99 1f       	adc	r25, r25
    48d0:	5a 95       	dec	r21
    48d2:	a9 f7       	brne	.-22     	; 0x48be <__udivmodhi4_loop>
    48d4:	80 95       	com	r24
    48d6:	90 95       	com	r25
    48d8:	bc 01       	movw	r22, r24
    48da:	cd 01       	movw	r24, r26
    48dc:	08 95       	ret

000048de <__udivmodsi4>:
    48de:	a1 e2       	ldi	r26, 0x21	; 33
    48e0:	1a 2e       	mov	r1, r26
    48e2:	aa 1b       	sub	r26, r26
    48e4:	bb 1b       	sub	r27, r27
    48e6:	fd 01       	movw	r30, r26
    48e8:	0d c0       	rjmp	.+26     	; 0x4904 <__udivmodsi4_ep>

000048ea <__udivmodsi4_loop>:
    48ea:	aa 1f       	adc	r26, r26
    48ec:	bb 1f       	adc	r27, r27
    48ee:	ee 1f       	adc	r30, r30
    48f0:	ff 1f       	adc	r31, r31
    48f2:	a2 17       	cp	r26, r18
    48f4:	b3 07       	cpc	r27, r19
    48f6:	e4 07       	cpc	r30, r20
    48f8:	f5 07       	cpc	r31, r21
    48fa:	20 f0       	brcs	.+8      	; 0x4904 <__udivmodsi4_ep>
    48fc:	a2 1b       	sub	r26, r18
    48fe:	b3 0b       	sbc	r27, r19
    4900:	e4 0b       	sbc	r30, r20
    4902:	f5 0b       	sbc	r31, r21

00004904 <__udivmodsi4_ep>:
    4904:	66 1f       	adc	r22, r22
    4906:	77 1f       	adc	r23, r23
    4908:	88 1f       	adc	r24, r24
    490a:	99 1f       	adc	r25, r25
    490c:	1a 94       	dec	r1
    490e:	69 f7       	brne	.-38     	; 0x48ea <__udivmodsi4_loop>
    4910:	60 95       	com	r22
    4912:	70 95       	com	r23
    4914:	80 95       	com	r24
    4916:	90 95       	com	r25
    4918:	9b 01       	movw	r18, r22
    491a:	ac 01       	movw	r20, r24
    491c:	bd 01       	movw	r22, r26
    491e:	cf 01       	movw	r24, r30
    4920:	08 95       	ret

00004922 <__divmodsi4>:
    4922:	05 2e       	mov	r0, r21
    4924:	97 fb       	bst	r25, 7
    4926:	1e f4       	brtc	.+6      	; 0x492e <__divmodsi4+0xc>
    4928:	00 94       	com	r0
    492a:	0e 94 a8 24 	call	0x4950	; 0x4950 <__negsi2>
    492e:	57 fd       	sbrc	r21, 7
    4930:	07 d0       	rcall	.+14     	; 0x4940 <__divmodsi4_neg2>
    4932:	0e 94 6f 24 	call	0x48de	; 0x48de <__udivmodsi4>
    4936:	07 fc       	sbrc	r0, 7
    4938:	03 d0       	rcall	.+6      	; 0x4940 <__divmodsi4_neg2>
    493a:	4e f4       	brtc	.+18     	; 0x494e <__divmodsi4_exit>
    493c:	0c 94 a8 24 	jmp	0x4950	; 0x4950 <__negsi2>

00004940 <__divmodsi4_neg2>:
    4940:	50 95       	com	r21
    4942:	40 95       	com	r20
    4944:	30 95       	com	r19
    4946:	21 95       	neg	r18
    4948:	3f 4f       	sbci	r19, 0xFF	; 255
    494a:	4f 4f       	sbci	r20, 0xFF	; 255
    494c:	5f 4f       	sbci	r21, 0xFF	; 255

0000494e <__divmodsi4_exit>:
    494e:	08 95       	ret

00004950 <__negsi2>:
    4950:	90 95       	com	r25
    4952:	80 95       	com	r24
    4954:	70 95       	com	r23
    4956:	61 95       	neg	r22
    4958:	7f 4f       	sbci	r23, 0xFF	; 255
    495a:	8f 4f       	sbci	r24, 0xFF	; 255
    495c:	9f 4f       	sbci	r25, 0xFF	; 255
    495e:	08 95       	ret

00004960 <__tablejump2__>:
    4960:	ee 0f       	add	r30, r30
    4962:	ff 1f       	adc	r31, r31
    4964:	05 90       	lpm	r0, Z+
    4966:	f4 91       	lpm	r31, Z
    4968:	e0 2d       	mov	r30, r0
    496a:	09 94       	ijmp

0000496c <__umulhisi3>:
    496c:	a2 9f       	mul	r26, r18
    496e:	b0 01       	movw	r22, r0
    4970:	b3 9f       	mul	r27, r19
    4972:	c0 01       	movw	r24, r0
    4974:	a3 9f       	mul	r26, r19
    4976:	70 0d       	add	r23, r0
    4978:	81 1d       	adc	r24, r1
    497a:	11 24       	eor	r1, r1
    497c:	91 1d       	adc	r25, r1
    497e:	b2 9f       	mul	r27, r18
    4980:	70 0d       	add	r23, r0
    4982:	81 1d       	adc	r24, r1
    4984:	11 24       	eor	r1, r1
    4986:	91 1d       	adc	r25, r1
    4988:	08 95       	ret

0000498a <__muluhisi3>:
    498a:	0e 94 b6 24 	call	0x496c	; 0x496c <__umulhisi3>
    498e:	a5 9f       	mul	r26, r21
    4990:	90 0d       	add	r25, r0
    4992:	b4 9f       	mul	r27, r20
    4994:	90 0d       	add	r25, r0
    4996:	a4 9f       	mul	r26, r20
    4998:	80 0d       	add	r24, r0
    499a:	91 1d       	adc	r25, r1
    499c:	11 24       	eor	r1, r1
    499e:	08 95       	ret

000049a0 <strcpy>:
    49a0:	fb 01       	movw	r30, r22
    49a2:	dc 01       	movw	r26, r24
    49a4:	01 90       	ld	r0, Z+
    49a6:	0d 92       	st	X+, r0
    49a8:	00 20       	and	r0, r0
    49aa:	e1 f7       	brne	.-8      	; 0x49a4 <strcpy+0x4>
    49ac:	08 95       	ret

000049ae <printf>:
    49ae:	a0 e0       	ldi	r26, 0x00	; 0
    49b0:	b0 e0       	ldi	r27, 0x00	; 0
    49b2:	ed ed       	ldi	r30, 0xDD	; 221
    49b4:	f4 e2       	ldi	r31, 0x24	; 36
    49b6:	0c 94 e7 27 	jmp	0x4fce	; 0x4fce <__prologue_saves__+0x20>
    49ba:	ae 01       	movw	r20, r28
    49bc:	4b 5f       	subi	r20, 0xFB	; 251
    49be:	5f 4f       	sbci	r21, 0xFF	; 255
    49c0:	fa 01       	movw	r30, r20
    49c2:	61 91       	ld	r22, Z+
    49c4:	71 91       	ld	r23, Z+
    49c6:	af 01       	movw	r20, r30
    49c8:	80 91 14 07 	lds	r24, 0x0714	; 0x800714 <__iob+0x2>
    49cc:	90 91 15 07 	lds	r25, 0x0715	; 0x800715 <__iob+0x3>
    49d0:	0e 94 1d 25 	call	0x4a3a	; 0x4a3a <vfprintf>
    49d4:	e2 e0       	ldi	r30, 0x02	; 2
    49d6:	0c 94 03 28 	jmp	0x5006	; 0x5006 <__epilogue_restores__+0x20>

000049da <puts>:
    49da:	0f 93       	push	r16
    49dc:	1f 93       	push	r17
    49de:	cf 93       	push	r28
    49e0:	df 93       	push	r29
    49e2:	e0 91 14 07 	lds	r30, 0x0714	; 0x800714 <__iob+0x2>
    49e6:	f0 91 15 07 	lds	r31, 0x0715	; 0x800715 <__iob+0x3>
    49ea:	23 81       	ldd	r18, Z+3	; 0x03
    49ec:	21 ff       	sbrs	r18, 1
    49ee:	1b c0       	rjmp	.+54     	; 0x4a26 <puts+0x4c>
    49f0:	8c 01       	movw	r16, r24
    49f2:	d0 e0       	ldi	r29, 0x00	; 0
    49f4:	c0 e0       	ldi	r28, 0x00	; 0
    49f6:	f8 01       	movw	r30, r16
    49f8:	81 91       	ld	r24, Z+
    49fa:	8f 01       	movw	r16, r30
    49fc:	60 91 14 07 	lds	r22, 0x0714	; 0x800714 <__iob+0x2>
    4a00:	70 91 15 07 	lds	r23, 0x0715	; 0x800715 <__iob+0x3>
    4a04:	db 01       	movw	r26, r22
    4a06:	18 96       	adiw	r26, 0x08	; 8
    4a08:	ed 91       	ld	r30, X+
    4a0a:	fc 91       	ld	r31, X
    4a0c:	19 97       	sbiw	r26, 0x09	; 9
    4a0e:	88 23       	and	r24, r24
    4a10:	31 f0       	breq	.+12     	; 0x4a1e <puts+0x44>
    4a12:	09 95       	icall
    4a14:	89 2b       	or	r24, r25
    4a16:	79 f3       	breq	.-34     	; 0x49f6 <puts+0x1c>
    4a18:	df ef       	ldi	r29, 0xFF	; 255
    4a1a:	cf ef       	ldi	r28, 0xFF	; 255
    4a1c:	ec cf       	rjmp	.-40     	; 0x49f6 <puts+0x1c>
    4a1e:	8a e0       	ldi	r24, 0x0A	; 10
    4a20:	09 95       	icall
    4a22:	89 2b       	or	r24, r25
    4a24:	19 f0       	breq	.+6      	; 0x4a2c <puts+0x52>
    4a26:	8f ef       	ldi	r24, 0xFF	; 255
    4a28:	9f ef       	ldi	r25, 0xFF	; 255
    4a2a:	02 c0       	rjmp	.+4      	; 0x4a30 <puts+0x56>
    4a2c:	8d 2f       	mov	r24, r29
    4a2e:	9c 2f       	mov	r25, r28
    4a30:	df 91       	pop	r29
    4a32:	cf 91       	pop	r28
    4a34:	1f 91       	pop	r17
    4a36:	0f 91       	pop	r16
    4a38:	08 95       	ret

00004a3a <vfprintf>:
    4a3a:	ab e0       	ldi	r26, 0x0B	; 11
    4a3c:	b0 e0       	ldi	r27, 0x00	; 0
    4a3e:	e3 e2       	ldi	r30, 0x23	; 35
    4a40:	f5 e2       	ldi	r31, 0x25	; 37
    4a42:	0c 94 d7 27 	jmp	0x4fae	; 0x4fae <__prologue_saves__>
    4a46:	6c 01       	movw	r12, r24
    4a48:	7b 01       	movw	r14, r22
    4a4a:	8a 01       	movw	r16, r20
    4a4c:	fc 01       	movw	r30, r24
    4a4e:	17 82       	std	Z+7, r1	; 0x07
    4a50:	16 82       	std	Z+6, r1	; 0x06
    4a52:	83 81       	ldd	r24, Z+3	; 0x03
    4a54:	81 ff       	sbrs	r24, 1
    4a56:	cc c1       	rjmp	.+920    	; 0x4df0 <vfprintf+0x3b6>
    4a58:	ce 01       	movw	r24, r28
    4a5a:	01 96       	adiw	r24, 0x01	; 1
    4a5c:	3c 01       	movw	r6, r24
    4a5e:	f6 01       	movw	r30, r12
    4a60:	93 81       	ldd	r25, Z+3	; 0x03
    4a62:	f7 01       	movw	r30, r14
    4a64:	93 fd       	sbrc	r25, 3
    4a66:	85 91       	lpm	r24, Z+
    4a68:	93 ff       	sbrs	r25, 3
    4a6a:	81 91       	ld	r24, Z+
    4a6c:	7f 01       	movw	r14, r30
    4a6e:	88 23       	and	r24, r24
    4a70:	09 f4       	brne	.+2      	; 0x4a74 <vfprintf+0x3a>
    4a72:	ba c1       	rjmp	.+884    	; 0x4de8 <vfprintf+0x3ae>
    4a74:	85 32       	cpi	r24, 0x25	; 37
    4a76:	39 f4       	brne	.+14     	; 0x4a86 <vfprintf+0x4c>
    4a78:	93 fd       	sbrc	r25, 3
    4a7a:	85 91       	lpm	r24, Z+
    4a7c:	93 ff       	sbrs	r25, 3
    4a7e:	81 91       	ld	r24, Z+
    4a80:	7f 01       	movw	r14, r30
    4a82:	85 32       	cpi	r24, 0x25	; 37
    4a84:	29 f4       	brne	.+10     	; 0x4a90 <vfprintf+0x56>
    4a86:	b6 01       	movw	r22, r12
    4a88:	90 e0       	ldi	r25, 0x00	; 0
    4a8a:	0e 94 14 27 	call	0x4e28	; 0x4e28 <fputc>
    4a8e:	e7 cf       	rjmp	.-50     	; 0x4a5e <vfprintf+0x24>
    4a90:	91 2c       	mov	r9, r1
    4a92:	21 2c       	mov	r2, r1
    4a94:	31 2c       	mov	r3, r1
    4a96:	ff e1       	ldi	r31, 0x1F	; 31
    4a98:	f3 15       	cp	r31, r3
    4a9a:	d8 f0       	brcs	.+54     	; 0x4ad2 <vfprintf+0x98>
    4a9c:	8b 32       	cpi	r24, 0x2B	; 43
    4a9e:	79 f0       	breq	.+30     	; 0x4abe <vfprintf+0x84>
    4aa0:	38 f4       	brcc	.+14     	; 0x4ab0 <vfprintf+0x76>
    4aa2:	80 32       	cpi	r24, 0x20	; 32
    4aa4:	79 f0       	breq	.+30     	; 0x4ac4 <vfprintf+0x8a>
    4aa6:	83 32       	cpi	r24, 0x23	; 35
    4aa8:	a1 f4       	brne	.+40     	; 0x4ad2 <vfprintf+0x98>
    4aaa:	23 2d       	mov	r18, r3
    4aac:	20 61       	ori	r18, 0x10	; 16
    4aae:	1d c0       	rjmp	.+58     	; 0x4aea <vfprintf+0xb0>
    4ab0:	8d 32       	cpi	r24, 0x2D	; 45
    4ab2:	61 f0       	breq	.+24     	; 0x4acc <vfprintf+0x92>
    4ab4:	80 33       	cpi	r24, 0x30	; 48
    4ab6:	69 f4       	brne	.+26     	; 0x4ad2 <vfprintf+0x98>
    4ab8:	23 2d       	mov	r18, r3
    4aba:	21 60       	ori	r18, 0x01	; 1
    4abc:	16 c0       	rjmp	.+44     	; 0x4aea <vfprintf+0xb0>
    4abe:	83 2d       	mov	r24, r3
    4ac0:	82 60       	ori	r24, 0x02	; 2
    4ac2:	38 2e       	mov	r3, r24
    4ac4:	e3 2d       	mov	r30, r3
    4ac6:	e4 60       	ori	r30, 0x04	; 4
    4ac8:	3e 2e       	mov	r3, r30
    4aca:	2a c0       	rjmp	.+84     	; 0x4b20 <vfprintf+0xe6>
    4acc:	f3 2d       	mov	r31, r3
    4ace:	f8 60       	ori	r31, 0x08	; 8
    4ad0:	1d c0       	rjmp	.+58     	; 0x4b0c <vfprintf+0xd2>
    4ad2:	37 fc       	sbrc	r3, 7
    4ad4:	2d c0       	rjmp	.+90     	; 0x4b30 <vfprintf+0xf6>
    4ad6:	20 ed       	ldi	r18, 0xD0	; 208
    4ad8:	28 0f       	add	r18, r24
    4ada:	2a 30       	cpi	r18, 0x0A	; 10
    4adc:	40 f0       	brcs	.+16     	; 0x4aee <vfprintf+0xb4>
    4ade:	8e 32       	cpi	r24, 0x2E	; 46
    4ae0:	b9 f4       	brne	.+46     	; 0x4b10 <vfprintf+0xd6>
    4ae2:	36 fc       	sbrc	r3, 6
    4ae4:	81 c1       	rjmp	.+770    	; 0x4de8 <vfprintf+0x3ae>
    4ae6:	23 2d       	mov	r18, r3
    4ae8:	20 64       	ori	r18, 0x40	; 64
    4aea:	32 2e       	mov	r3, r18
    4aec:	19 c0       	rjmp	.+50     	; 0x4b20 <vfprintf+0xe6>
    4aee:	36 fe       	sbrs	r3, 6
    4af0:	06 c0       	rjmp	.+12     	; 0x4afe <vfprintf+0xc4>
    4af2:	8a e0       	ldi	r24, 0x0A	; 10
    4af4:	98 9e       	mul	r9, r24
    4af6:	20 0d       	add	r18, r0
    4af8:	11 24       	eor	r1, r1
    4afa:	92 2e       	mov	r9, r18
    4afc:	11 c0       	rjmp	.+34     	; 0x4b20 <vfprintf+0xe6>
    4afe:	ea e0       	ldi	r30, 0x0A	; 10
    4b00:	2e 9e       	mul	r2, r30
    4b02:	20 0d       	add	r18, r0
    4b04:	11 24       	eor	r1, r1
    4b06:	22 2e       	mov	r2, r18
    4b08:	f3 2d       	mov	r31, r3
    4b0a:	f0 62       	ori	r31, 0x20	; 32
    4b0c:	3f 2e       	mov	r3, r31
    4b0e:	08 c0       	rjmp	.+16     	; 0x4b20 <vfprintf+0xe6>
    4b10:	8c 36       	cpi	r24, 0x6C	; 108
    4b12:	21 f4       	brne	.+8      	; 0x4b1c <vfprintf+0xe2>
    4b14:	83 2d       	mov	r24, r3
    4b16:	80 68       	ori	r24, 0x80	; 128
    4b18:	38 2e       	mov	r3, r24
    4b1a:	02 c0       	rjmp	.+4      	; 0x4b20 <vfprintf+0xe6>
    4b1c:	88 36       	cpi	r24, 0x68	; 104
    4b1e:	41 f4       	brne	.+16     	; 0x4b30 <vfprintf+0xf6>
    4b20:	f7 01       	movw	r30, r14
    4b22:	93 fd       	sbrc	r25, 3
    4b24:	85 91       	lpm	r24, Z+
    4b26:	93 ff       	sbrs	r25, 3
    4b28:	81 91       	ld	r24, Z+
    4b2a:	7f 01       	movw	r14, r30
    4b2c:	81 11       	cpse	r24, r1
    4b2e:	b3 cf       	rjmp	.-154    	; 0x4a96 <vfprintf+0x5c>
    4b30:	98 2f       	mov	r25, r24
    4b32:	9f 7d       	andi	r25, 0xDF	; 223
    4b34:	95 54       	subi	r25, 0x45	; 69
    4b36:	93 30       	cpi	r25, 0x03	; 3
    4b38:	28 f4       	brcc	.+10     	; 0x4b44 <vfprintf+0x10a>
    4b3a:	0c 5f       	subi	r16, 0xFC	; 252
    4b3c:	1f 4f       	sbci	r17, 0xFF	; 255
    4b3e:	9f e3       	ldi	r25, 0x3F	; 63
    4b40:	99 83       	std	Y+1, r25	; 0x01
    4b42:	0d c0       	rjmp	.+26     	; 0x4b5e <vfprintf+0x124>
    4b44:	83 36       	cpi	r24, 0x63	; 99
    4b46:	31 f0       	breq	.+12     	; 0x4b54 <vfprintf+0x11a>
    4b48:	83 37       	cpi	r24, 0x73	; 115
    4b4a:	71 f0       	breq	.+28     	; 0x4b68 <vfprintf+0x12e>
    4b4c:	83 35       	cpi	r24, 0x53	; 83
    4b4e:	09 f0       	breq	.+2      	; 0x4b52 <vfprintf+0x118>
    4b50:	59 c0       	rjmp	.+178    	; 0x4c04 <vfprintf+0x1ca>
    4b52:	21 c0       	rjmp	.+66     	; 0x4b96 <vfprintf+0x15c>
    4b54:	f8 01       	movw	r30, r16
    4b56:	80 81       	ld	r24, Z
    4b58:	89 83       	std	Y+1, r24	; 0x01
    4b5a:	0e 5f       	subi	r16, 0xFE	; 254
    4b5c:	1f 4f       	sbci	r17, 0xFF	; 255
    4b5e:	88 24       	eor	r8, r8
    4b60:	83 94       	inc	r8
    4b62:	91 2c       	mov	r9, r1
    4b64:	53 01       	movw	r10, r6
    4b66:	13 c0       	rjmp	.+38     	; 0x4b8e <vfprintf+0x154>
    4b68:	28 01       	movw	r4, r16
    4b6a:	f2 e0       	ldi	r31, 0x02	; 2
    4b6c:	4f 0e       	add	r4, r31
    4b6e:	51 1c       	adc	r5, r1
    4b70:	f8 01       	movw	r30, r16
    4b72:	a0 80       	ld	r10, Z
    4b74:	b1 80       	ldd	r11, Z+1	; 0x01
    4b76:	36 fe       	sbrs	r3, 6
    4b78:	03 c0       	rjmp	.+6      	; 0x4b80 <vfprintf+0x146>
    4b7a:	69 2d       	mov	r22, r9
    4b7c:	70 e0       	ldi	r23, 0x00	; 0
    4b7e:	02 c0       	rjmp	.+4      	; 0x4b84 <vfprintf+0x14a>
    4b80:	6f ef       	ldi	r22, 0xFF	; 255
    4b82:	7f ef       	ldi	r23, 0xFF	; 255
    4b84:	c5 01       	movw	r24, r10
    4b86:	0e 94 09 27 	call	0x4e12	; 0x4e12 <strnlen>
    4b8a:	4c 01       	movw	r8, r24
    4b8c:	82 01       	movw	r16, r4
    4b8e:	f3 2d       	mov	r31, r3
    4b90:	ff 77       	andi	r31, 0x7F	; 127
    4b92:	3f 2e       	mov	r3, r31
    4b94:	16 c0       	rjmp	.+44     	; 0x4bc2 <vfprintf+0x188>
    4b96:	28 01       	movw	r4, r16
    4b98:	22 e0       	ldi	r18, 0x02	; 2
    4b9a:	42 0e       	add	r4, r18
    4b9c:	51 1c       	adc	r5, r1
    4b9e:	f8 01       	movw	r30, r16
    4ba0:	a0 80       	ld	r10, Z
    4ba2:	b1 80       	ldd	r11, Z+1	; 0x01
    4ba4:	36 fe       	sbrs	r3, 6
    4ba6:	03 c0       	rjmp	.+6      	; 0x4bae <vfprintf+0x174>
    4ba8:	69 2d       	mov	r22, r9
    4baa:	70 e0       	ldi	r23, 0x00	; 0
    4bac:	02 c0       	rjmp	.+4      	; 0x4bb2 <vfprintf+0x178>
    4bae:	6f ef       	ldi	r22, 0xFF	; 255
    4bb0:	7f ef       	ldi	r23, 0xFF	; 255
    4bb2:	c5 01       	movw	r24, r10
    4bb4:	0e 94 fe 26 	call	0x4dfc	; 0x4dfc <strnlen_P>
    4bb8:	4c 01       	movw	r8, r24
    4bba:	f3 2d       	mov	r31, r3
    4bbc:	f0 68       	ori	r31, 0x80	; 128
    4bbe:	3f 2e       	mov	r3, r31
    4bc0:	82 01       	movw	r16, r4
    4bc2:	33 fc       	sbrc	r3, 3
    4bc4:	1b c0       	rjmp	.+54     	; 0x4bfc <vfprintf+0x1c2>
    4bc6:	82 2d       	mov	r24, r2
    4bc8:	90 e0       	ldi	r25, 0x00	; 0
    4bca:	88 16       	cp	r8, r24
    4bcc:	99 06       	cpc	r9, r25
    4bce:	b0 f4       	brcc	.+44     	; 0x4bfc <vfprintf+0x1c2>
    4bd0:	b6 01       	movw	r22, r12
    4bd2:	80 e2       	ldi	r24, 0x20	; 32
    4bd4:	90 e0       	ldi	r25, 0x00	; 0
    4bd6:	0e 94 14 27 	call	0x4e28	; 0x4e28 <fputc>
    4bda:	2a 94       	dec	r2
    4bdc:	f4 cf       	rjmp	.-24     	; 0x4bc6 <vfprintf+0x18c>
    4bde:	f5 01       	movw	r30, r10
    4be0:	37 fc       	sbrc	r3, 7
    4be2:	85 91       	lpm	r24, Z+
    4be4:	37 fe       	sbrs	r3, 7
    4be6:	81 91       	ld	r24, Z+
    4be8:	5f 01       	movw	r10, r30
    4bea:	b6 01       	movw	r22, r12
    4bec:	90 e0       	ldi	r25, 0x00	; 0
    4bee:	0e 94 14 27 	call	0x4e28	; 0x4e28 <fputc>
    4bf2:	21 10       	cpse	r2, r1
    4bf4:	2a 94       	dec	r2
    4bf6:	21 e0       	ldi	r18, 0x01	; 1
    4bf8:	82 1a       	sub	r8, r18
    4bfa:	91 08       	sbc	r9, r1
    4bfc:	81 14       	cp	r8, r1
    4bfe:	91 04       	cpc	r9, r1
    4c00:	71 f7       	brne	.-36     	; 0x4bde <vfprintf+0x1a4>
    4c02:	e8 c0       	rjmp	.+464    	; 0x4dd4 <vfprintf+0x39a>
    4c04:	84 36       	cpi	r24, 0x64	; 100
    4c06:	11 f0       	breq	.+4      	; 0x4c0c <vfprintf+0x1d2>
    4c08:	89 36       	cpi	r24, 0x69	; 105
    4c0a:	41 f5       	brne	.+80     	; 0x4c5c <vfprintf+0x222>
    4c0c:	f8 01       	movw	r30, r16
    4c0e:	37 fe       	sbrs	r3, 7
    4c10:	07 c0       	rjmp	.+14     	; 0x4c20 <vfprintf+0x1e6>
    4c12:	60 81       	ld	r22, Z
    4c14:	71 81       	ldd	r23, Z+1	; 0x01
    4c16:	82 81       	ldd	r24, Z+2	; 0x02
    4c18:	93 81       	ldd	r25, Z+3	; 0x03
    4c1a:	0c 5f       	subi	r16, 0xFC	; 252
    4c1c:	1f 4f       	sbci	r17, 0xFF	; 255
    4c1e:	08 c0       	rjmp	.+16     	; 0x4c30 <vfprintf+0x1f6>
    4c20:	60 81       	ld	r22, Z
    4c22:	71 81       	ldd	r23, Z+1	; 0x01
    4c24:	07 2e       	mov	r0, r23
    4c26:	00 0c       	add	r0, r0
    4c28:	88 0b       	sbc	r24, r24
    4c2a:	99 0b       	sbc	r25, r25
    4c2c:	0e 5f       	subi	r16, 0xFE	; 254
    4c2e:	1f 4f       	sbci	r17, 0xFF	; 255
    4c30:	f3 2d       	mov	r31, r3
    4c32:	ff 76       	andi	r31, 0x6F	; 111
    4c34:	3f 2e       	mov	r3, r31
    4c36:	97 ff       	sbrs	r25, 7
    4c38:	09 c0       	rjmp	.+18     	; 0x4c4c <vfprintf+0x212>
    4c3a:	90 95       	com	r25
    4c3c:	80 95       	com	r24
    4c3e:	70 95       	com	r23
    4c40:	61 95       	neg	r22
    4c42:	7f 4f       	sbci	r23, 0xFF	; 255
    4c44:	8f 4f       	sbci	r24, 0xFF	; 255
    4c46:	9f 4f       	sbci	r25, 0xFF	; 255
    4c48:	f0 68       	ori	r31, 0x80	; 128
    4c4a:	3f 2e       	mov	r3, r31
    4c4c:	2a e0       	ldi	r18, 0x0A	; 10
    4c4e:	30 e0       	ldi	r19, 0x00	; 0
    4c50:	a3 01       	movw	r20, r6
    4c52:	0e 94 50 27 	call	0x4ea0	; 0x4ea0 <__ultoa_invert>
    4c56:	88 2e       	mov	r8, r24
    4c58:	86 18       	sub	r8, r6
    4c5a:	45 c0       	rjmp	.+138    	; 0x4ce6 <vfprintf+0x2ac>
    4c5c:	85 37       	cpi	r24, 0x75	; 117
    4c5e:	31 f4       	brne	.+12     	; 0x4c6c <vfprintf+0x232>
    4c60:	23 2d       	mov	r18, r3
    4c62:	2f 7e       	andi	r18, 0xEF	; 239
    4c64:	b2 2e       	mov	r11, r18
    4c66:	2a e0       	ldi	r18, 0x0A	; 10
    4c68:	30 e0       	ldi	r19, 0x00	; 0
    4c6a:	25 c0       	rjmp	.+74     	; 0x4cb6 <vfprintf+0x27c>
    4c6c:	93 2d       	mov	r25, r3
    4c6e:	99 7f       	andi	r25, 0xF9	; 249
    4c70:	b9 2e       	mov	r11, r25
    4c72:	8f 36       	cpi	r24, 0x6F	; 111
    4c74:	c1 f0       	breq	.+48     	; 0x4ca6 <vfprintf+0x26c>
    4c76:	18 f4       	brcc	.+6      	; 0x4c7e <vfprintf+0x244>
    4c78:	88 35       	cpi	r24, 0x58	; 88
    4c7a:	79 f0       	breq	.+30     	; 0x4c9a <vfprintf+0x260>
    4c7c:	b5 c0       	rjmp	.+362    	; 0x4de8 <vfprintf+0x3ae>
    4c7e:	80 37       	cpi	r24, 0x70	; 112
    4c80:	19 f0       	breq	.+6      	; 0x4c88 <vfprintf+0x24e>
    4c82:	88 37       	cpi	r24, 0x78	; 120
    4c84:	21 f0       	breq	.+8      	; 0x4c8e <vfprintf+0x254>
    4c86:	b0 c0       	rjmp	.+352    	; 0x4de8 <vfprintf+0x3ae>
    4c88:	e9 2f       	mov	r30, r25
    4c8a:	e0 61       	ori	r30, 0x10	; 16
    4c8c:	be 2e       	mov	r11, r30
    4c8e:	b4 fe       	sbrs	r11, 4
    4c90:	0d c0       	rjmp	.+26     	; 0x4cac <vfprintf+0x272>
    4c92:	fb 2d       	mov	r31, r11
    4c94:	f4 60       	ori	r31, 0x04	; 4
    4c96:	bf 2e       	mov	r11, r31
    4c98:	09 c0       	rjmp	.+18     	; 0x4cac <vfprintf+0x272>
    4c9a:	34 fe       	sbrs	r3, 4
    4c9c:	0a c0       	rjmp	.+20     	; 0x4cb2 <vfprintf+0x278>
    4c9e:	29 2f       	mov	r18, r25
    4ca0:	26 60       	ori	r18, 0x06	; 6
    4ca2:	b2 2e       	mov	r11, r18
    4ca4:	06 c0       	rjmp	.+12     	; 0x4cb2 <vfprintf+0x278>
    4ca6:	28 e0       	ldi	r18, 0x08	; 8
    4ca8:	30 e0       	ldi	r19, 0x00	; 0
    4caa:	05 c0       	rjmp	.+10     	; 0x4cb6 <vfprintf+0x27c>
    4cac:	20 e1       	ldi	r18, 0x10	; 16
    4cae:	30 e0       	ldi	r19, 0x00	; 0
    4cb0:	02 c0       	rjmp	.+4      	; 0x4cb6 <vfprintf+0x27c>
    4cb2:	20 e1       	ldi	r18, 0x10	; 16
    4cb4:	32 e0       	ldi	r19, 0x02	; 2
    4cb6:	f8 01       	movw	r30, r16
    4cb8:	b7 fe       	sbrs	r11, 7
    4cba:	07 c0       	rjmp	.+14     	; 0x4cca <vfprintf+0x290>
    4cbc:	60 81       	ld	r22, Z
    4cbe:	71 81       	ldd	r23, Z+1	; 0x01
    4cc0:	82 81       	ldd	r24, Z+2	; 0x02
    4cc2:	93 81       	ldd	r25, Z+3	; 0x03
    4cc4:	0c 5f       	subi	r16, 0xFC	; 252
    4cc6:	1f 4f       	sbci	r17, 0xFF	; 255
    4cc8:	06 c0       	rjmp	.+12     	; 0x4cd6 <vfprintf+0x29c>
    4cca:	60 81       	ld	r22, Z
    4ccc:	71 81       	ldd	r23, Z+1	; 0x01
    4cce:	80 e0       	ldi	r24, 0x00	; 0
    4cd0:	90 e0       	ldi	r25, 0x00	; 0
    4cd2:	0e 5f       	subi	r16, 0xFE	; 254
    4cd4:	1f 4f       	sbci	r17, 0xFF	; 255
    4cd6:	a3 01       	movw	r20, r6
    4cd8:	0e 94 50 27 	call	0x4ea0	; 0x4ea0 <__ultoa_invert>
    4cdc:	88 2e       	mov	r8, r24
    4cde:	86 18       	sub	r8, r6
    4ce0:	fb 2d       	mov	r31, r11
    4ce2:	ff 77       	andi	r31, 0x7F	; 127
    4ce4:	3f 2e       	mov	r3, r31
    4ce6:	36 fe       	sbrs	r3, 6
    4ce8:	0d c0       	rjmp	.+26     	; 0x4d04 <vfprintf+0x2ca>
    4cea:	23 2d       	mov	r18, r3
    4cec:	2e 7f       	andi	r18, 0xFE	; 254
    4cee:	a2 2e       	mov	r10, r18
    4cf0:	89 14       	cp	r8, r9
    4cf2:	58 f4       	brcc	.+22     	; 0x4d0a <vfprintf+0x2d0>
    4cf4:	34 fe       	sbrs	r3, 4
    4cf6:	0b c0       	rjmp	.+22     	; 0x4d0e <vfprintf+0x2d4>
    4cf8:	32 fc       	sbrc	r3, 2
    4cfa:	09 c0       	rjmp	.+18     	; 0x4d0e <vfprintf+0x2d4>
    4cfc:	83 2d       	mov	r24, r3
    4cfe:	8e 7e       	andi	r24, 0xEE	; 238
    4d00:	a8 2e       	mov	r10, r24
    4d02:	05 c0       	rjmp	.+10     	; 0x4d0e <vfprintf+0x2d4>
    4d04:	b8 2c       	mov	r11, r8
    4d06:	a3 2c       	mov	r10, r3
    4d08:	03 c0       	rjmp	.+6      	; 0x4d10 <vfprintf+0x2d6>
    4d0a:	b8 2c       	mov	r11, r8
    4d0c:	01 c0       	rjmp	.+2      	; 0x4d10 <vfprintf+0x2d6>
    4d0e:	b9 2c       	mov	r11, r9
    4d10:	a4 fe       	sbrs	r10, 4
    4d12:	0f c0       	rjmp	.+30     	; 0x4d32 <vfprintf+0x2f8>
    4d14:	fe 01       	movw	r30, r28
    4d16:	e8 0d       	add	r30, r8
    4d18:	f1 1d       	adc	r31, r1
    4d1a:	80 81       	ld	r24, Z
    4d1c:	80 33       	cpi	r24, 0x30	; 48
    4d1e:	21 f4       	brne	.+8      	; 0x4d28 <vfprintf+0x2ee>
    4d20:	9a 2d       	mov	r25, r10
    4d22:	99 7e       	andi	r25, 0xE9	; 233
    4d24:	a9 2e       	mov	r10, r25
    4d26:	09 c0       	rjmp	.+18     	; 0x4d3a <vfprintf+0x300>
    4d28:	a2 fe       	sbrs	r10, 2
    4d2a:	06 c0       	rjmp	.+12     	; 0x4d38 <vfprintf+0x2fe>
    4d2c:	b3 94       	inc	r11
    4d2e:	b3 94       	inc	r11
    4d30:	04 c0       	rjmp	.+8      	; 0x4d3a <vfprintf+0x300>
    4d32:	8a 2d       	mov	r24, r10
    4d34:	86 78       	andi	r24, 0x86	; 134
    4d36:	09 f0       	breq	.+2      	; 0x4d3a <vfprintf+0x300>
    4d38:	b3 94       	inc	r11
    4d3a:	a3 fc       	sbrc	r10, 3
    4d3c:	11 c0       	rjmp	.+34     	; 0x4d60 <vfprintf+0x326>
    4d3e:	a0 fe       	sbrs	r10, 0
    4d40:	06 c0       	rjmp	.+12     	; 0x4d4e <vfprintf+0x314>
    4d42:	b2 14       	cp	r11, r2
    4d44:	88 f4       	brcc	.+34     	; 0x4d68 <vfprintf+0x32e>
    4d46:	28 0c       	add	r2, r8
    4d48:	92 2c       	mov	r9, r2
    4d4a:	9b 18       	sub	r9, r11
    4d4c:	0e c0       	rjmp	.+28     	; 0x4d6a <vfprintf+0x330>
    4d4e:	b2 14       	cp	r11, r2
    4d50:	60 f4       	brcc	.+24     	; 0x4d6a <vfprintf+0x330>
    4d52:	b6 01       	movw	r22, r12
    4d54:	80 e2       	ldi	r24, 0x20	; 32
    4d56:	90 e0       	ldi	r25, 0x00	; 0
    4d58:	0e 94 14 27 	call	0x4e28	; 0x4e28 <fputc>
    4d5c:	b3 94       	inc	r11
    4d5e:	f7 cf       	rjmp	.-18     	; 0x4d4e <vfprintf+0x314>
    4d60:	b2 14       	cp	r11, r2
    4d62:	18 f4       	brcc	.+6      	; 0x4d6a <vfprintf+0x330>
    4d64:	2b 18       	sub	r2, r11
    4d66:	02 c0       	rjmp	.+4      	; 0x4d6c <vfprintf+0x332>
    4d68:	98 2c       	mov	r9, r8
    4d6a:	21 2c       	mov	r2, r1
    4d6c:	a4 fe       	sbrs	r10, 4
    4d6e:	10 c0       	rjmp	.+32     	; 0x4d90 <vfprintf+0x356>
    4d70:	b6 01       	movw	r22, r12
    4d72:	80 e3       	ldi	r24, 0x30	; 48
    4d74:	90 e0       	ldi	r25, 0x00	; 0
    4d76:	0e 94 14 27 	call	0x4e28	; 0x4e28 <fputc>
    4d7a:	a2 fe       	sbrs	r10, 2
    4d7c:	17 c0       	rjmp	.+46     	; 0x4dac <vfprintf+0x372>
    4d7e:	a1 fc       	sbrc	r10, 1
    4d80:	03 c0       	rjmp	.+6      	; 0x4d88 <vfprintf+0x34e>
    4d82:	88 e7       	ldi	r24, 0x78	; 120
    4d84:	90 e0       	ldi	r25, 0x00	; 0
    4d86:	02 c0       	rjmp	.+4      	; 0x4d8c <vfprintf+0x352>
    4d88:	88 e5       	ldi	r24, 0x58	; 88
    4d8a:	90 e0       	ldi	r25, 0x00	; 0
    4d8c:	b6 01       	movw	r22, r12
    4d8e:	0c c0       	rjmp	.+24     	; 0x4da8 <vfprintf+0x36e>
    4d90:	8a 2d       	mov	r24, r10
    4d92:	86 78       	andi	r24, 0x86	; 134
    4d94:	59 f0       	breq	.+22     	; 0x4dac <vfprintf+0x372>
    4d96:	a1 fe       	sbrs	r10, 1
    4d98:	02 c0       	rjmp	.+4      	; 0x4d9e <vfprintf+0x364>
    4d9a:	8b e2       	ldi	r24, 0x2B	; 43
    4d9c:	01 c0       	rjmp	.+2      	; 0x4da0 <vfprintf+0x366>
    4d9e:	80 e2       	ldi	r24, 0x20	; 32
    4da0:	a7 fc       	sbrc	r10, 7
    4da2:	8d e2       	ldi	r24, 0x2D	; 45
    4da4:	b6 01       	movw	r22, r12
    4da6:	90 e0       	ldi	r25, 0x00	; 0
    4da8:	0e 94 14 27 	call	0x4e28	; 0x4e28 <fputc>
    4dac:	89 14       	cp	r8, r9
    4dae:	38 f4       	brcc	.+14     	; 0x4dbe <vfprintf+0x384>
    4db0:	b6 01       	movw	r22, r12
    4db2:	80 e3       	ldi	r24, 0x30	; 48
    4db4:	90 e0       	ldi	r25, 0x00	; 0
    4db6:	0e 94 14 27 	call	0x4e28	; 0x4e28 <fputc>
    4dba:	9a 94       	dec	r9
    4dbc:	f7 cf       	rjmp	.-18     	; 0x4dac <vfprintf+0x372>
    4dbe:	8a 94       	dec	r8
    4dc0:	f3 01       	movw	r30, r6
    4dc2:	e8 0d       	add	r30, r8
    4dc4:	f1 1d       	adc	r31, r1
    4dc6:	80 81       	ld	r24, Z
    4dc8:	b6 01       	movw	r22, r12
    4dca:	90 e0       	ldi	r25, 0x00	; 0
    4dcc:	0e 94 14 27 	call	0x4e28	; 0x4e28 <fputc>
    4dd0:	81 10       	cpse	r8, r1
    4dd2:	f5 cf       	rjmp	.-22     	; 0x4dbe <vfprintf+0x384>
    4dd4:	22 20       	and	r2, r2
    4dd6:	09 f4       	brne	.+2      	; 0x4dda <vfprintf+0x3a0>
    4dd8:	42 ce       	rjmp	.-892    	; 0x4a5e <vfprintf+0x24>
    4dda:	b6 01       	movw	r22, r12
    4ddc:	80 e2       	ldi	r24, 0x20	; 32
    4dde:	90 e0       	ldi	r25, 0x00	; 0
    4de0:	0e 94 14 27 	call	0x4e28	; 0x4e28 <fputc>
    4de4:	2a 94       	dec	r2
    4de6:	f6 cf       	rjmp	.-20     	; 0x4dd4 <vfprintf+0x39a>
    4de8:	f6 01       	movw	r30, r12
    4dea:	86 81       	ldd	r24, Z+6	; 0x06
    4dec:	97 81       	ldd	r25, Z+7	; 0x07
    4dee:	02 c0       	rjmp	.+4      	; 0x4df4 <vfprintf+0x3ba>
    4df0:	8f ef       	ldi	r24, 0xFF	; 255
    4df2:	9f ef       	ldi	r25, 0xFF	; 255
    4df4:	2b 96       	adiw	r28, 0x0b	; 11
    4df6:	e2 e1       	ldi	r30, 0x12	; 18
    4df8:	0c 94 f3 27 	jmp	0x4fe6	; 0x4fe6 <__epilogue_restores__>

00004dfc <strnlen_P>:
    4dfc:	fc 01       	movw	r30, r24
    4dfe:	05 90       	lpm	r0, Z+
    4e00:	61 50       	subi	r22, 0x01	; 1
    4e02:	70 40       	sbci	r23, 0x00	; 0
    4e04:	01 10       	cpse	r0, r1
    4e06:	d8 f7       	brcc	.-10     	; 0x4dfe <strnlen_P+0x2>
    4e08:	80 95       	com	r24
    4e0a:	90 95       	com	r25
    4e0c:	8e 0f       	add	r24, r30
    4e0e:	9f 1f       	adc	r25, r31
    4e10:	08 95       	ret

00004e12 <strnlen>:
    4e12:	fc 01       	movw	r30, r24
    4e14:	61 50       	subi	r22, 0x01	; 1
    4e16:	70 40       	sbci	r23, 0x00	; 0
    4e18:	01 90       	ld	r0, Z+
    4e1a:	01 10       	cpse	r0, r1
    4e1c:	d8 f7       	brcc	.-10     	; 0x4e14 <strnlen+0x2>
    4e1e:	80 95       	com	r24
    4e20:	90 95       	com	r25
    4e22:	8e 0f       	add	r24, r30
    4e24:	9f 1f       	adc	r25, r31
    4e26:	08 95       	ret

00004e28 <fputc>:
    4e28:	0f 93       	push	r16
    4e2a:	1f 93       	push	r17
    4e2c:	cf 93       	push	r28
    4e2e:	df 93       	push	r29
    4e30:	fb 01       	movw	r30, r22
    4e32:	23 81       	ldd	r18, Z+3	; 0x03
    4e34:	21 fd       	sbrc	r18, 1
    4e36:	03 c0       	rjmp	.+6      	; 0x4e3e <fputc+0x16>
    4e38:	8f ef       	ldi	r24, 0xFF	; 255
    4e3a:	9f ef       	ldi	r25, 0xFF	; 255
    4e3c:	2c c0       	rjmp	.+88     	; 0x4e96 <fputc+0x6e>
    4e3e:	22 ff       	sbrs	r18, 2
    4e40:	16 c0       	rjmp	.+44     	; 0x4e6e <fputc+0x46>
    4e42:	46 81       	ldd	r20, Z+6	; 0x06
    4e44:	57 81       	ldd	r21, Z+7	; 0x07
    4e46:	24 81       	ldd	r18, Z+4	; 0x04
    4e48:	35 81       	ldd	r19, Z+5	; 0x05
    4e4a:	42 17       	cp	r20, r18
    4e4c:	53 07       	cpc	r21, r19
    4e4e:	44 f4       	brge	.+16     	; 0x4e60 <fputc+0x38>
    4e50:	a0 81       	ld	r26, Z
    4e52:	b1 81       	ldd	r27, Z+1	; 0x01
    4e54:	9d 01       	movw	r18, r26
    4e56:	2f 5f       	subi	r18, 0xFF	; 255
    4e58:	3f 4f       	sbci	r19, 0xFF	; 255
    4e5a:	31 83       	std	Z+1, r19	; 0x01
    4e5c:	20 83       	st	Z, r18
    4e5e:	8c 93       	st	X, r24
    4e60:	26 81       	ldd	r18, Z+6	; 0x06
    4e62:	37 81       	ldd	r19, Z+7	; 0x07
    4e64:	2f 5f       	subi	r18, 0xFF	; 255
    4e66:	3f 4f       	sbci	r19, 0xFF	; 255
    4e68:	37 83       	std	Z+7, r19	; 0x07
    4e6a:	26 83       	std	Z+6, r18	; 0x06
    4e6c:	14 c0       	rjmp	.+40     	; 0x4e96 <fputc+0x6e>
    4e6e:	8b 01       	movw	r16, r22
    4e70:	ec 01       	movw	r28, r24
    4e72:	fb 01       	movw	r30, r22
    4e74:	00 84       	ldd	r0, Z+8	; 0x08
    4e76:	f1 85       	ldd	r31, Z+9	; 0x09
    4e78:	e0 2d       	mov	r30, r0
    4e7a:	09 95       	icall
    4e7c:	89 2b       	or	r24, r25
    4e7e:	e1 f6       	brne	.-72     	; 0x4e38 <fputc+0x10>
    4e80:	d8 01       	movw	r26, r16
    4e82:	16 96       	adiw	r26, 0x06	; 6
    4e84:	8d 91       	ld	r24, X+
    4e86:	9c 91       	ld	r25, X
    4e88:	17 97       	sbiw	r26, 0x07	; 7
    4e8a:	01 96       	adiw	r24, 0x01	; 1
    4e8c:	17 96       	adiw	r26, 0x07	; 7
    4e8e:	9c 93       	st	X, r25
    4e90:	8e 93       	st	-X, r24
    4e92:	16 97       	sbiw	r26, 0x06	; 6
    4e94:	ce 01       	movw	r24, r28
    4e96:	df 91       	pop	r29
    4e98:	cf 91       	pop	r28
    4e9a:	1f 91       	pop	r17
    4e9c:	0f 91       	pop	r16
    4e9e:	08 95       	ret

00004ea0 <__ultoa_invert>:
    4ea0:	fa 01       	movw	r30, r20
    4ea2:	aa 27       	eor	r26, r26
    4ea4:	28 30       	cpi	r18, 0x08	; 8
    4ea6:	51 f1       	breq	.+84     	; 0x4efc <__ultoa_invert+0x5c>
    4ea8:	20 31       	cpi	r18, 0x10	; 16
    4eaa:	81 f1       	breq	.+96     	; 0x4f0c <__ultoa_invert+0x6c>
    4eac:	e8 94       	clt
    4eae:	6f 93       	push	r22
    4eb0:	6e 7f       	andi	r22, 0xFE	; 254
    4eb2:	6e 5f       	subi	r22, 0xFE	; 254
    4eb4:	7f 4f       	sbci	r23, 0xFF	; 255
    4eb6:	8f 4f       	sbci	r24, 0xFF	; 255
    4eb8:	9f 4f       	sbci	r25, 0xFF	; 255
    4eba:	af 4f       	sbci	r26, 0xFF	; 255
    4ebc:	b1 e0       	ldi	r27, 0x01	; 1
    4ebe:	3e d0       	rcall	.+124    	; 0x4f3c <__ultoa_invert+0x9c>
    4ec0:	b4 e0       	ldi	r27, 0x04	; 4
    4ec2:	3c d0       	rcall	.+120    	; 0x4f3c <__ultoa_invert+0x9c>
    4ec4:	67 0f       	add	r22, r23
    4ec6:	78 1f       	adc	r23, r24
    4ec8:	89 1f       	adc	r24, r25
    4eca:	9a 1f       	adc	r25, r26
    4ecc:	a1 1d       	adc	r26, r1
    4ece:	68 0f       	add	r22, r24
    4ed0:	79 1f       	adc	r23, r25
    4ed2:	8a 1f       	adc	r24, r26
    4ed4:	91 1d       	adc	r25, r1
    4ed6:	a1 1d       	adc	r26, r1
    4ed8:	6a 0f       	add	r22, r26
    4eda:	71 1d       	adc	r23, r1
    4edc:	81 1d       	adc	r24, r1
    4ede:	91 1d       	adc	r25, r1
    4ee0:	a1 1d       	adc	r26, r1
    4ee2:	20 d0       	rcall	.+64     	; 0x4f24 <__ultoa_invert+0x84>
    4ee4:	09 f4       	brne	.+2      	; 0x4ee8 <__ultoa_invert+0x48>
    4ee6:	68 94       	set
    4ee8:	3f 91       	pop	r19
    4eea:	2a e0       	ldi	r18, 0x0A	; 10
    4eec:	26 9f       	mul	r18, r22
    4eee:	11 24       	eor	r1, r1
    4ef0:	30 19       	sub	r19, r0
    4ef2:	30 5d       	subi	r19, 0xD0	; 208
    4ef4:	31 93       	st	Z+, r19
    4ef6:	de f6       	brtc	.-74     	; 0x4eae <__ultoa_invert+0xe>
    4ef8:	cf 01       	movw	r24, r30
    4efa:	08 95       	ret
    4efc:	46 2f       	mov	r20, r22
    4efe:	47 70       	andi	r20, 0x07	; 7
    4f00:	40 5d       	subi	r20, 0xD0	; 208
    4f02:	41 93       	st	Z+, r20
    4f04:	b3 e0       	ldi	r27, 0x03	; 3
    4f06:	0f d0       	rcall	.+30     	; 0x4f26 <__ultoa_invert+0x86>
    4f08:	c9 f7       	brne	.-14     	; 0x4efc <__ultoa_invert+0x5c>
    4f0a:	f6 cf       	rjmp	.-20     	; 0x4ef8 <__ultoa_invert+0x58>
    4f0c:	46 2f       	mov	r20, r22
    4f0e:	4f 70       	andi	r20, 0x0F	; 15
    4f10:	40 5d       	subi	r20, 0xD0	; 208
    4f12:	4a 33       	cpi	r20, 0x3A	; 58
    4f14:	18 f0       	brcs	.+6      	; 0x4f1c <__ultoa_invert+0x7c>
    4f16:	49 5d       	subi	r20, 0xD9	; 217
    4f18:	31 fd       	sbrc	r19, 1
    4f1a:	40 52       	subi	r20, 0x20	; 32
    4f1c:	41 93       	st	Z+, r20
    4f1e:	02 d0       	rcall	.+4      	; 0x4f24 <__ultoa_invert+0x84>
    4f20:	a9 f7       	brne	.-22     	; 0x4f0c <__ultoa_invert+0x6c>
    4f22:	ea cf       	rjmp	.-44     	; 0x4ef8 <__ultoa_invert+0x58>
    4f24:	b4 e0       	ldi	r27, 0x04	; 4
    4f26:	a6 95       	lsr	r26
    4f28:	97 95       	ror	r25
    4f2a:	87 95       	ror	r24
    4f2c:	77 95       	ror	r23
    4f2e:	67 95       	ror	r22
    4f30:	ba 95       	dec	r27
    4f32:	c9 f7       	brne	.-14     	; 0x4f26 <__ultoa_invert+0x86>
    4f34:	00 97       	sbiw	r24, 0x00	; 0
    4f36:	61 05       	cpc	r22, r1
    4f38:	71 05       	cpc	r23, r1
    4f3a:	08 95       	ret
    4f3c:	9b 01       	movw	r18, r22
    4f3e:	ac 01       	movw	r20, r24
    4f40:	0a 2e       	mov	r0, r26
    4f42:	06 94       	lsr	r0
    4f44:	57 95       	ror	r21
    4f46:	47 95       	ror	r20
    4f48:	37 95       	ror	r19
    4f4a:	27 95       	ror	r18
    4f4c:	ba 95       	dec	r27
    4f4e:	c9 f7       	brne	.-14     	; 0x4f42 <__ultoa_invert+0xa2>
    4f50:	62 0f       	add	r22, r18
    4f52:	73 1f       	adc	r23, r19
    4f54:	84 1f       	adc	r24, r20
    4f56:	95 1f       	adc	r25, r21
    4f58:	a0 1d       	adc	r26, r0
    4f5a:	08 95       	ret

00004f5c <eeprom_read_word>:
    4f5c:	a8 e1       	ldi	r26, 0x18	; 24
    4f5e:	b0 e0       	ldi	r27, 0x00	; 0
    4f60:	42 e0       	ldi	r20, 0x02	; 2
    4f62:	50 e0       	ldi	r21, 0x00	; 0
    4f64:	0c 94 bb 27 	jmp	0x4f76	; 0x4f76 <eeprom_read_blraw>

00004f68 <eeprom_write_word>:
    4f68:	0e 94 c9 27 	call	0x4f92	; 0x4f92 <eeprom_write_byte>
    4f6c:	27 2f       	mov	r18, r23
    4f6e:	0c 94 ca 27 	jmp	0x4f94	; 0x4f94 <eeprom_write_r18>

00004f72 <eeprom_read_block>:
    4f72:	dc 01       	movw	r26, r24
    4f74:	cb 01       	movw	r24, r22

00004f76 <eeprom_read_blraw>:
    4f76:	fc 01       	movw	r30, r24
    4f78:	f9 99       	sbic	0x1f, 1	; 31
    4f7a:	fe cf       	rjmp	.-4      	; 0x4f78 <eeprom_read_blraw+0x2>
    4f7c:	06 c0       	rjmp	.+12     	; 0x4f8a <eeprom_read_blraw+0x14>
    4f7e:	f2 bd       	out	0x22, r31	; 34
    4f80:	e1 bd       	out	0x21, r30	; 33
    4f82:	f8 9a       	sbi	0x1f, 0	; 31
    4f84:	31 96       	adiw	r30, 0x01	; 1
    4f86:	00 b4       	in	r0, 0x20	; 32
    4f88:	0d 92       	st	X+, r0
    4f8a:	41 50       	subi	r20, 0x01	; 1
    4f8c:	50 40       	sbci	r21, 0x00	; 0
    4f8e:	b8 f7       	brcc	.-18     	; 0x4f7e <eeprom_read_blraw+0x8>
    4f90:	08 95       	ret

00004f92 <eeprom_write_byte>:
    4f92:	26 2f       	mov	r18, r22

00004f94 <eeprom_write_r18>:
    4f94:	f9 99       	sbic	0x1f, 1	; 31
    4f96:	fe cf       	rjmp	.-4      	; 0x4f94 <eeprom_write_r18>
    4f98:	1f ba       	out	0x1f, r1	; 31
    4f9a:	92 bd       	out	0x22, r25	; 34
    4f9c:	81 bd       	out	0x21, r24	; 33
    4f9e:	20 bd       	out	0x20, r18	; 32
    4fa0:	0f b6       	in	r0, 0x3f	; 63
    4fa2:	f8 94       	cli
    4fa4:	fa 9a       	sbi	0x1f, 2	; 31
    4fa6:	f9 9a       	sbi	0x1f, 1	; 31
    4fa8:	0f be       	out	0x3f, r0	; 63
    4faa:	01 96       	adiw	r24, 0x01	; 1
    4fac:	08 95       	ret

00004fae <__prologue_saves__>:
    4fae:	2f 92       	push	r2
    4fb0:	3f 92       	push	r3
    4fb2:	4f 92       	push	r4
    4fb4:	5f 92       	push	r5
    4fb6:	6f 92       	push	r6
    4fb8:	7f 92       	push	r7
    4fba:	8f 92       	push	r8
    4fbc:	9f 92       	push	r9
    4fbe:	af 92       	push	r10
    4fc0:	bf 92       	push	r11
    4fc2:	cf 92       	push	r12
    4fc4:	df 92       	push	r13
    4fc6:	ef 92       	push	r14
    4fc8:	ff 92       	push	r15
    4fca:	0f 93       	push	r16
    4fcc:	1f 93       	push	r17
    4fce:	cf 93       	push	r28
    4fd0:	df 93       	push	r29
    4fd2:	cd b7       	in	r28, 0x3d	; 61
    4fd4:	de b7       	in	r29, 0x3e	; 62
    4fd6:	ca 1b       	sub	r28, r26
    4fd8:	db 0b       	sbc	r29, r27
    4fda:	0f b6       	in	r0, 0x3f	; 63
    4fdc:	f8 94       	cli
    4fde:	de bf       	out	0x3e, r29	; 62
    4fe0:	0f be       	out	0x3f, r0	; 63
    4fe2:	cd bf       	out	0x3d, r28	; 61
    4fe4:	09 94       	ijmp

00004fe6 <__epilogue_restores__>:
    4fe6:	2a 88       	ldd	r2, Y+18	; 0x12
    4fe8:	39 88       	ldd	r3, Y+17	; 0x11
    4fea:	48 88       	ldd	r4, Y+16	; 0x10
    4fec:	5f 84       	ldd	r5, Y+15	; 0x0f
    4fee:	6e 84       	ldd	r6, Y+14	; 0x0e
    4ff0:	7d 84       	ldd	r7, Y+13	; 0x0d
    4ff2:	8c 84       	ldd	r8, Y+12	; 0x0c
    4ff4:	9b 84       	ldd	r9, Y+11	; 0x0b
    4ff6:	aa 84       	ldd	r10, Y+10	; 0x0a
    4ff8:	b9 84       	ldd	r11, Y+9	; 0x09
    4ffa:	c8 84       	ldd	r12, Y+8	; 0x08
    4ffc:	df 80       	ldd	r13, Y+7	; 0x07
    4ffe:	ee 80       	ldd	r14, Y+6	; 0x06
    5000:	fd 80       	ldd	r15, Y+5	; 0x05
    5002:	0c 81       	ldd	r16, Y+4	; 0x04
    5004:	1b 81       	ldd	r17, Y+3	; 0x03
    5006:	aa 81       	ldd	r26, Y+2	; 0x02
    5008:	b9 81       	ldd	r27, Y+1	; 0x01
    500a:	ce 0f       	add	r28, r30
    500c:	d1 1d       	adc	r29, r1
    500e:	0f b6       	in	r0, 0x3f	; 63
    5010:	f8 94       	cli
    5012:	de bf       	out	0x3e, r29	; 62
    5014:	0f be       	out	0x3f, r0	; 63
    5016:	cd bf       	out	0x3d, r28	; 61
    5018:	ed 01       	movw	r28, r26
    501a:	08 95       	ret

0000501c <_exit>:
    501c:	f8 94       	cli

0000501e <__stop_program>:
    501e:	ff cf       	rjmp	.-2      	; 0x501e <__stop_program>
